   1               		.file	"lea_enc.c"
   2               	__SP_H__ = 0x3e
   3               	__SP_L__ = 0x3d
   4               	__SREG__ = 0x3f
   5               	__RAMPZ__ = 0x3b
   6               	__CCP__ = 0x34
   7               	__tmp_reg__ = 0
   8               	__zero_reg__ = 1
   9               		.text
  10               	.Ltext0:
  11               		.cfi_sections	.debug_frame
  12               	.global	lea_encrypt_core
  14               	lea_encrypt_core:
  15               	.LFB2:
  16               		.file 1 "../crypto/avrcryptolib//lea/lea_enc.c"
   1:../crypto/avrcryptolib//lea/lea_enc.c **** /* laa_enc.c */
   2:../crypto/avrcryptolib//lea/lea_enc.c **** /*
   3:../crypto/avrcryptolib//lea/lea_enc.c ****     This file is part of the AVR-Crypto-Lib.
   4:../crypto/avrcryptolib//lea/lea_enc.c ****     Copyright (C) 2008  Daniel Otte (daniel.otte@rub.de)
   5:../crypto/avrcryptolib//lea/lea_enc.c **** 
   6:../crypto/avrcryptolib//lea/lea_enc.c ****     This program is free software: you can redistribute it and/or modify
   7:../crypto/avrcryptolib//lea/lea_enc.c ****     it under the terms of the GNU General Public License as published by
   8:../crypto/avrcryptolib//lea/lea_enc.c ****     the Free Software Foundation, either version 3 of the License, or
   9:../crypto/avrcryptolib//lea/lea_enc.c ****     (at your option) any later version.
  10:../crypto/avrcryptolib//lea/lea_enc.c **** 
  11:../crypto/avrcryptolib//lea/lea_enc.c ****     This program is distributed in the hope that it will be useful,
  12:../crypto/avrcryptolib//lea/lea_enc.c ****     but WITHOUT ANY WARRANTY; without even the implied warranty of
  13:../crypto/avrcryptolib//lea/lea_enc.c ****     MERCHANTABILITY or FITNESS FOR A PARTICULAR PURPOSE.  See the
  14:../crypto/avrcryptolib//lea/lea_enc.c ****     GNU General Public License for more details.
  15:../crypto/avrcryptolib//lea/lea_enc.c **** 
  16:../crypto/avrcryptolib//lea/lea_enc.c ****     You should have received a copy of the GNU General Public License
  17:../crypto/avrcryptolib//lea/lea_enc.c ****     along with this program.  If not, see <http://www.gnu.org/licenses/>.
  18:../crypto/avrcryptolib//lea/lea_enc.c **** */
  19:../crypto/avrcryptolib//lea/lea_enc.c **** /**
  20:../crypto/avrcryptolib//lea/lea_enc.c ****  * \file     lea_enc.c
  21:../crypto/avrcryptolib//lea/lea_enc.c ****  * \email    daniel.otte@rub.de
  22:../crypto/avrcryptolib//lea/lea_enc.c ****  * \author   Daniel Otte 
  23:../crypto/avrcryptolib//lea/lea_enc.c ****  * \date     2008-12-30
  24:../crypto/avrcryptolib//lea/lea_enc.c ****  * \license  GPLv3 or later
  25:../crypto/avrcryptolib//lea/lea_enc.c ****  * 
  26:../crypto/avrcryptolib//lea/lea_enc.c ****  */
  27:../crypto/avrcryptolib//lea/lea_enc.c **** 
  28:../crypto/avrcryptolib//lea/lea_enc.c **** #include <stdint.h>
  29:../crypto/avrcryptolib//lea/lea_enc.c **** #include <string.h>
  30:../crypto/avrcryptolib//lea/lea_enc.c **** #include "lea.h"
  31:../crypto/avrcryptolib//lea/lea_enc.c **** #include "lea_enc.h"
  32:../crypto/avrcryptolib//lea/lea_enc.c **** #include <avr/pgmspace.h>
  33:../crypto/avrcryptolib//lea/lea_enc.c **** 
  34:../crypto/avrcryptolib//lea/lea_enc.c **** #define ROR(W,i) (((W) >> (i)) | ((W) << (32 - (i))))
  35:../crypto/avrcryptolib//lea/lea_enc.c **** #define ROL(W,i) (((W) << (i)) | ((W) >> (32 - (i))))
  36:../crypto/avrcryptolib//lea/lea_enc.c **** //#define loadU32(v)	((uint32_t)((((unsigned char*)(&v))[3]<<24)|(((unsigned char*)(&v))[2]<<16)|((
  37:../crypto/avrcryptolib//lea/lea_enc.c **** #define loadU32(v)	(v)
  38:../crypto/avrcryptolib//lea/lea_enc.c **** 
  39:../crypto/avrcryptolib//lea/lea_enc.c **** static
  40:../crypto/avrcryptolib//lea/lea_enc.c **** void lea_enc_round(lea_cipher_state_t* state,const LEA_KEY *key){
  41:../crypto/avrcryptolib//lea/lea_enc.c **** 	// state : 16byte state ->s[i]
  42:../crypto/avrcryptolib//lea/lea_enc.c **** 	uint32_t X0,X1,X2,X3;
  43:../crypto/avrcryptolib//lea/lea_enc.c **** 	
  44:../crypto/avrcryptolib//lea/lea_enc.c **** 	const uint32_t* _mk = (const uint32_t*)state->s;
  45:../crypto/avrcryptolib//lea/lea_enc.c **** 	X0 = loadU32(_mk[0]);
  46:../crypto/avrcryptolib//lea/lea_enc.c **** 	X1 = loadU32(_mk[1]);
  47:../crypto/avrcryptolib//lea/lea_enc.c **** 	X2 = loadU32(_mk[2]);
  48:../crypto/avrcryptolib//lea/lea_enc.c **** 	X3 = loadU32(_mk[3]);
  49:../crypto/avrcryptolib//lea/lea_enc.c **** 	
  50:../crypto/avrcryptolib//lea/lea_enc.c **** 	X3 = ROR((X2 ^ key->rk[  4]) + (X3 ^ key->rk[  5]), 3);
  51:../crypto/avrcryptolib//lea/lea_enc.c **** 	X2 = ROR((X1 ^ key->rk[  2]) + (X2 ^ key->rk[  3]), 5);
  52:../crypto/avrcryptolib//lea/lea_enc.c **** 	X1 = ROL((X0 ^ key->rk[  0]) + (X1 ^ key->rk[  1]), 9);
  53:../crypto/avrcryptolib//lea/lea_enc.c **** 	X0 = ROR((X3 ^ key->rk[ 10]) + (X0 ^ key->rk[ 11]), 3);
  54:../crypto/avrcryptolib//lea/lea_enc.c **** 	X3 = ROR((X2 ^ key->rk[  8]) + (X3 ^ key->rk[  9]), 5);
  55:../crypto/avrcryptolib//lea/lea_enc.c **** 	X2 = ROL((X1 ^ key->rk[  6]) + (X2 ^ key->rk[  7]), 9);
  56:../crypto/avrcryptolib//lea/lea_enc.c **** 	X1 = ROR((X0 ^ key->rk[ 16]) + (X1 ^ key->rk[ 17]), 3);
  57:../crypto/avrcryptolib//lea/lea_enc.c **** 	X0 = ROR((X3 ^ key->rk[ 14]) + (X0 ^ key->rk[ 15]), 5);
  58:../crypto/avrcryptolib//lea/lea_enc.c **** 	X3 = ROL((X2 ^ key->rk[ 12]) + (X3 ^ key->rk[ 13]), 9);
  59:../crypto/avrcryptolib//lea/lea_enc.c **** 	X2 = ROR((X1 ^ key->rk[ 22]) + (X2 ^ key->rk[ 23]), 3);
  60:../crypto/avrcryptolib//lea/lea_enc.c **** 	X1 = ROR((X0 ^ key->rk[ 20]) + (X1 ^ key->rk[ 21]), 5);
  61:../crypto/avrcryptolib//lea/lea_enc.c **** 	X0 = ROL((X3 ^ key->rk[ 18]) + (X0 ^ key->rk[ 19]), 9);
  62:../crypto/avrcryptolib//lea/lea_enc.c **** 	
  63:../crypto/avrcryptolib//lea/lea_enc.c **** 	X3 = ROR((X2 ^ key->rk[ 28]) + (X3 ^ key->rk[ 29]), 3);
  64:../crypto/avrcryptolib//lea/lea_enc.c **** 	X2 = ROR((X1 ^ key->rk[ 26]) + (X2 ^ key->rk[ 27]), 5);
  65:../crypto/avrcryptolib//lea/lea_enc.c **** 	X1 = ROL((X0 ^ key->rk[ 24]) + (X1 ^ key->rk[ 25]), 9);
  66:../crypto/avrcryptolib//lea/lea_enc.c **** 	X0 = ROR((X3 ^ key->rk[ 34]) + (X0 ^ key->rk[ 35]), 3);
  67:../crypto/avrcryptolib//lea/lea_enc.c **** 	X3 = ROR((X2 ^ key->rk[ 32]) + (X3 ^ key->rk[ 33]), 5);
  68:../crypto/avrcryptolib//lea/lea_enc.c **** 	X2 = ROL((X1 ^ key->rk[ 30]) + (X2 ^ key->rk[ 31]), 9);
  69:../crypto/avrcryptolib//lea/lea_enc.c **** 	X1 = ROR((X0 ^ key->rk[ 40]) + (X1 ^ key->rk[ 41]), 3);
  70:../crypto/avrcryptolib//lea/lea_enc.c **** 	X0 = ROR((X3 ^ key->rk[ 38]) + (X0 ^ key->rk[ 39]), 5);
  71:../crypto/avrcryptolib//lea/lea_enc.c **** 	X3 = ROL((X2 ^ key->rk[ 36]) + (X3 ^ key->rk[ 37]), 9);
  72:../crypto/avrcryptolib//lea/lea_enc.c **** 	X2 = ROR((X1 ^ key->rk[ 46]) + (X2 ^ key->rk[ 47]), 3);
  73:../crypto/avrcryptolib//lea/lea_enc.c **** 	X1 = ROR((X0 ^ key->rk[ 44]) + (X1 ^ key->rk[ 45]), 5);
  74:../crypto/avrcryptolib//lea/lea_enc.c **** 	X0 = ROL((X3 ^ key->rk[ 42]) + (X0 ^ key->rk[ 43]), 9);
  75:../crypto/avrcryptolib//lea/lea_enc.c **** 
  76:../crypto/avrcryptolib//lea/lea_enc.c **** 	X3 = ROR((X2 ^ key->rk[ 52]) + (X3 ^ key->rk[ 53]), 3);
  77:../crypto/avrcryptolib//lea/lea_enc.c **** 	X2 = ROR((X1 ^ key->rk[ 50]) + (X2 ^ key->rk[ 51]), 5);
  78:../crypto/avrcryptolib//lea/lea_enc.c **** 	X1 = ROL((X0 ^ key->rk[ 48]) + (X1 ^ key->rk[ 49]), 9);
  79:../crypto/avrcryptolib//lea/lea_enc.c **** 	X0 = ROR((X3 ^ key->rk[ 58]) + (X0 ^ key->rk[ 59]), 3);
  80:../crypto/avrcryptolib//lea/lea_enc.c **** 	X3 = ROR((X2 ^ key->rk[ 56]) + (X3 ^ key->rk[ 57]), 5);
  81:../crypto/avrcryptolib//lea/lea_enc.c **** 	X2 = ROL((X1 ^ key->rk[ 54]) + (X2 ^ key->rk[ 55]), 9);
  82:../crypto/avrcryptolib//lea/lea_enc.c **** 	X1 = ROR((X0 ^ key->rk[ 64]) + (X1 ^ key->rk[ 65]), 3);
  83:../crypto/avrcryptolib//lea/lea_enc.c **** 	X0 = ROR((X3 ^ key->rk[ 62]) + (X0 ^ key->rk[ 63]), 5);
  84:../crypto/avrcryptolib//lea/lea_enc.c **** 	X3 = ROL((X2 ^ key->rk[ 60]) + (X3 ^ key->rk[ 61]), 9);
  85:../crypto/avrcryptolib//lea/lea_enc.c **** 	X2 = ROR((X1 ^ key->rk[ 70]) + (X2 ^ key->rk[ 71]), 3);
  86:../crypto/avrcryptolib//lea/lea_enc.c **** 	X1 = ROR((X0 ^ key->rk[ 68]) + (X1 ^ key->rk[ 69]), 5);
  87:../crypto/avrcryptolib//lea/lea_enc.c **** 	X0 = ROL((X3 ^ key->rk[ 66]) + (X0 ^ key->rk[ 67]), 9);
  88:../crypto/avrcryptolib//lea/lea_enc.c **** 
  89:../crypto/avrcryptolib//lea/lea_enc.c **** 	X3 = ROR((X2 ^ key->rk[ 76]) + (X3 ^ key->rk[ 77]), 3);
  90:../crypto/avrcryptolib//lea/lea_enc.c **** 	X2 = ROR((X1 ^ key->rk[ 74]) + (X2 ^ key->rk[ 75]), 5);
  91:../crypto/avrcryptolib//lea/lea_enc.c **** 	X1 = ROL((X0 ^ key->rk[ 72]) + (X1 ^ key->rk[ 73]), 9);
  92:../crypto/avrcryptolib//lea/lea_enc.c **** 	X0 = ROR((X3 ^ key->rk[ 82]) + (X0 ^ key->rk[ 83]), 3);
  93:../crypto/avrcryptolib//lea/lea_enc.c **** 	X3 = ROR((X2 ^ key->rk[ 80]) + (X3 ^ key->rk[ 81]), 5);
  94:../crypto/avrcryptolib//lea/lea_enc.c **** 	X2 = ROL((X1 ^ key->rk[ 78]) + (X2 ^ key->rk[ 79]), 9);
  95:../crypto/avrcryptolib//lea/lea_enc.c **** 	X1 = ROR((X0 ^ key->rk[ 88]) + (X1 ^ key->rk[ 89]), 3);
  96:../crypto/avrcryptolib//lea/lea_enc.c **** 	X0 = ROR((X3 ^ key->rk[ 86]) + (X0 ^ key->rk[ 87]), 5);
  97:../crypto/avrcryptolib//lea/lea_enc.c **** 	X3 = ROL((X2 ^ key->rk[ 84]) + (X3 ^ key->rk[ 85]), 9);
  98:../crypto/avrcryptolib//lea/lea_enc.c **** 	X2 = ROR((X1 ^ key->rk[ 94]) + (X2 ^ key->rk[ 95]), 3);
  99:../crypto/avrcryptolib//lea/lea_enc.c **** 	X1 = ROR((X0 ^ key->rk[ 92]) + (X1 ^ key->rk[ 93]), 5);
 100:../crypto/avrcryptolib//lea/lea_enc.c **** 	X0 = ROL((X3 ^ key->rk[ 90]) + (X0 ^ key->rk[ 91]), 9);
 101:../crypto/avrcryptolib//lea/lea_enc.c **** 
 102:../crypto/avrcryptolib//lea/lea_enc.c **** 	X3 = ROR((X2 ^ key->rk[100]) + (X3 ^ key->rk[101]), 3);
 103:../crypto/avrcryptolib//lea/lea_enc.c **** 	X2 = ROR((X1 ^ key->rk[ 98]) + (X2 ^ key->rk[ 99]), 5);
 104:../crypto/avrcryptolib//lea/lea_enc.c **** 	X1 = ROL((X0 ^ key->rk[ 96]) + (X1 ^ key->rk[ 97]), 9);
 105:../crypto/avrcryptolib//lea/lea_enc.c **** 	X0 = ROR((X3 ^ key->rk[106]) + (X0 ^ key->rk[107]), 3);
 106:../crypto/avrcryptolib//lea/lea_enc.c **** 	X3 = ROR((X2 ^ key->rk[104]) + (X3 ^ key->rk[105]), 5);
 107:../crypto/avrcryptolib//lea/lea_enc.c **** 	X2 = ROL((X1 ^ key->rk[102]) + (X2 ^ key->rk[103]), 9);
 108:../crypto/avrcryptolib//lea/lea_enc.c **** 	X1 = ROR((X0 ^ key->rk[112]) + (X1 ^ key->rk[113]), 3);
 109:../crypto/avrcryptolib//lea/lea_enc.c **** 	X0 = ROR((X3 ^ key->rk[110]) + (X0 ^ key->rk[111]), 5);
 110:../crypto/avrcryptolib//lea/lea_enc.c **** 	X3 = ROL((X2 ^ key->rk[108]) + (X3 ^ key->rk[109]), 9);
 111:../crypto/avrcryptolib//lea/lea_enc.c **** 	X2 = ROR((X1 ^ key->rk[118]) + (X2 ^ key->rk[119]), 3);
 112:../crypto/avrcryptolib//lea/lea_enc.c **** 	X1 = ROR((X0 ^ key->rk[116]) + (X1 ^ key->rk[117]), 5);
 113:../crypto/avrcryptolib//lea/lea_enc.c **** 	X0 = ROL((X3 ^ key->rk[114]) + (X0 ^ key->rk[115]), 9);
 114:../crypto/avrcryptolib//lea/lea_enc.c **** 
 115:../crypto/avrcryptolib//lea/lea_enc.c **** 	X3 = ROR((X2 ^ key->rk[124]) + (X3 ^ key->rk[125]), 3);
 116:../crypto/avrcryptolib//lea/lea_enc.c **** 	X2 = ROR((X1 ^ key->rk[122]) + (X2 ^ key->rk[123]), 5);
 117:../crypto/avrcryptolib//lea/lea_enc.c **** 	X1 = ROL((X0 ^ key->rk[120]) + (X1 ^ key->rk[121]), 9);
 118:../crypto/avrcryptolib//lea/lea_enc.c **** 	X0 = ROR((X3 ^ key->rk[130]) + (X0 ^ key->rk[131]), 3);
 119:../crypto/avrcryptolib//lea/lea_enc.c **** 	X3 = ROR((X2 ^ key->rk[128]) + (X3 ^ key->rk[129]), 5);
 120:../crypto/avrcryptolib//lea/lea_enc.c **** 	X2 = ROL((X1 ^ key->rk[126]) + (X2 ^ key->rk[127]), 9);
 121:../crypto/avrcryptolib//lea/lea_enc.c **** 	X1 = ROR((X0 ^ key->rk[136]) + (X1 ^ key->rk[137]), 3);
 122:../crypto/avrcryptolib//lea/lea_enc.c **** 	X0 = ROR((X3 ^ key->rk[134]) + (X0 ^ key->rk[135]), 5);
 123:../crypto/avrcryptolib//lea/lea_enc.c **** 	X3 = ROL((X2 ^ key->rk[132]) + (X3 ^ key->rk[133]), 9);
 124:../crypto/avrcryptolib//lea/lea_enc.c **** 	X2 = ROR((X1 ^ key->rk[142]) + (X2 ^ key->rk[143]), 3);
 125:../crypto/avrcryptolib//lea/lea_enc.c **** 	X1 = ROR((X0 ^ key->rk[140]) + (X1 ^ key->rk[141]), 5);
 126:../crypto/avrcryptolib//lea/lea_enc.c **** 	X0 = ROL((X3 ^ key->rk[138]) + (X0 ^ key->rk[139]), 9);
 127:../crypto/avrcryptolib//lea/lea_enc.c **** 		
 128:../crypto/avrcryptolib//lea/lea_enc.c **** 	uint8_t i;
 129:../crypto/avrcryptolib//lea/lea_enc.c **** 	for(i=0;i<4;i++){
 130:../crypto/avrcryptolib//lea/lea_enc.c **** 		state->s[i] = X0;
 131:../crypto/avrcryptolib//lea/lea_enc.c **** 		state->s[i+4] = X1;
 132:../crypto/avrcryptolib//lea/lea_enc.c **** 		state->s[i+8] = X2;
 133:../crypto/avrcryptolib//lea/lea_enc.c **** 		state->s[i+12] = X3;
 134:../crypto/avrcryptolib//lea/lea_enc.c **** 		X0 >>=8;
 135:../crypto/avrcryptolib//lea/lea_enc.c **** 		X1 >>=8;
 136:../crypto/avrcryptolib//lea/lea_enc.c **** 		X2 >>=8;
 137:../crypto/avrcryptolib//lea/lea_enc.c **** 		X3 >>=8;
 138:../crypto/avrcryptolib//lea/lea_enc.c **** 	}
 139:../crypto/avrcryptolib//lea/lea_enc.c **** 
 140:../crypto/avrcryptolib//lea/lea_enc.c **** }
 141:../crypto/avrcryptolib//lea/lea_enc.c **** 
 142:../crypto/avrcryptolib//lea/lea_enc.c **** void lea_encrypt_core(lea_cipher_state_t* state, const LEA_KEY *key){
  17               		.loc 1 142 0
  18               		.cfi_startproc
  19               	.LVL0:
  20 0000 2F92      		push r2
  21               	.LCFI0:
  22               		.cfi_def_cfa_offset 4
  23               		.cfi_offset 2, -3
  24 0002 3F92      		push r3
  25               	.LCFI1:
  26               		.cfi_def_cfa_offset 5
  27               		.cfi_offset 3, -4
  28 0004 4F92      		push r4
  29               	.LCFI2:
  30               		.cfi_def_cfa_offset 6
  31               		.cfi_offset 4, -5
  32 0006 5F92      		push r5
  33               	.LCFI3:
  34               		.cfi_def_cfa_offset 7
  35               		.cfi_offset 5, -6
  36 0008 6F92      		push r6
  37               	.LCFI4:
  38               		.cfi_def_cfa_offset 8
  39               		.cfi_offset 6, -7
  40 000a 7F92      		push r7
  41               	.LCFI5:
  42               		.cfi_def_cfa_offset 9
  43               		.cfi_offset 7, -8
  44 000c 8F92      		push r8
  45               	.LCFI6:
  46               		.cfi_def_cfa_offset 10
  47               		.cfi_offset 8, -9
  48 000e 9F92      		push r9
  49               	.LCFI7:
  50               		.cfi_def_cfa_offset 11
  51               		.cfi_offset 9, -10
  52 0010 AF92      		push r10
  53               	.LCFI8:
  54               		.cfi_def_cfa_offset 12
  55               		.cfi_offset 10, -11
  56 0012 BF92      		push r11
  57               	.LCFI9:
  58               		.cfi_def_cfa_offset 13
  59               		.cfi_offset 11, -12
  60 0014 CF92      		push r12
  61               	.LCFI10:
  62               		.cfi_def_cfa_offset 14
  63               		.cfi_offset 12, -13
  64 0016 DF92      		push r13
  65               	.LCFI11:
  66               		.cfi_def_cfa_offset 15
  67               		.cfi_offset 13, -14
  68 0018 EF92      		push r14
  69               	.LCFI12:
  70               		.cfi_def_cfa_offset 16
  71               		.cfi_offset 14, -15
  72 001a FF92      		push r15
  73               	.LCFI13:
  74               		.cfi_def_cfa_offset 17
  75               		.cfi_offset 15, -16
  76 001c 0F93      		push r16
  77               	.LCFI14:
  78               		.cfi_def_cfa_offset 18
  79               		.cfi_offset 16, -17
  80 001e 1F93      		push r17
  81               	.LCFI15:
  82               		.cfi_def_cfa_offset 19
  83               		.cfi_offset 17, -18
  84 0020 CF93      		push r28
  85               	.LCFI16:
  86               		.cfi_def_cfa_offset 20
  87               		.cfi_offset 28, -19
  88 0022 DF93      		push r29
  89               	.LCFI17:
  90               		.cfi_def_cfa_offset 21
  91               		.cfi_offset 29, -20
  92               	/* prologue: function */
  93               	/* frame size = 0 */
  94               	/* stack size = 18 */
  95               	.L__stack_usage = 18
  96 0024 1C01      		movw r2,r24
  97 0026 FB01      		movw r30,r22
  98               	.LVL1:
  99               	.LBB4:
 100               	.LBB5:
  45:../crypto/avrcryptolib//lea/lea_enc.c **** 	X1 = loadU32(_mk[1]);
 101               		.loc 1 45 0
 102 0028 DC01      		movw r26,r24
 103 002a 4D90      		ld r4,X+
 104 002c 5D90      		ld r5,X+
 105 002e 6D90      		ld r6,X+
 106 0030 7C90      		ld r7,X
 107 0032 1397      		sbiw r26,3
 108               	.LVL2:
  46:../crypto/avrcryptolib//lea/lea_enc.c **** 	X2 = loadU32(_mk[2]);
 109               		.loc 1 46 0
 110 0034 1496      		adiw r26,4
 111 0036 8D91      		ld r24,X+
 112 0038 9D91      		ld r25,X+
 113 003a 0D90      		ld __tmp_reg__,X+
 114 003c BC91      		ld r27,X
 115 003e A02D      		mov r26,__tmp_reg__
 116               	.LVL3:
  47:../crypto/avrcryptolib//lea/lea_enc.c **** 	X3 = loadU32(_mk[3]);
 117               		.loc 1 47 0
 118 0040 E101      		movw r28,r2
 119 0042 4885      		ldd r20,Y+8
 120 0044 5985      		ldd r21,Y+9
 121 0046 6A85      		ldd r22,Y+10
 122 0048 7B85      		ldd r23,Y+11
 123               	.LVL4:
  50:../crypto/avrcryptolib//lea/lea_enc.c **** 	X2 = ROR((X1 ^ key->rk[  2]) + (X2 ^ key->rk[  3]), 5);
 124               		.loc 1 50 0
 125 004a CC84      		ldd r12,Y+12
 126 004c DD84      		ldd r13,Y+13
 127 004e EE84      		ldd r14,Y+14
 128 0050 FF84      		ldd r15,Y+15
 129 0052 0489      		ldd r16,Z+20
 130 0054 1589      		ldd r17,Z+21
 131 0056 2689      		ldd r18,Z+22
 132 0058 3789      		ldd r19,Z+23
 133 005a C026      		eor r12,r16
 134 005c D126      		eor r13,r17
 135 005e E226      		eor r14,r18
 136 0060 F326      		eor r15,r19
 137 0062 0089      		ldd r16,Z+16
 138 0064 1189      		ldd r17,Z+17
 139 0066 2289      		ldd r18,Z+18
 140 0068 3389      		ldd r19,Z+19
 141 006a 0427      		eor r16,r20
 142 006c 1527      		eor r17,r21
 143 006e 2627      		eor r18,r22
 144 0070 3727      		eor r19,r23
 145 0072 C00E      		add r12,r16
 146 0074 D11E      		adc r13,r17
 147 0076 E21E      		adc r14,r18
 148 0078 F31E      		adc r15,r19
 149 007a 9701      		movw r18,r14
 150 007c 8601      		movw r16,r12
 151 007e C3E0      		ldi r28,3
 152               		1:
 153 0080 3695      		lsr r19
 154 0082 2795      		ror r18
 155 0084 1795      		ror r17
 156 0086 0795      		ror r16
 157 0088 CA95      		dec r28
 158 008a 01F4      		brne 1b
 159 008c DDE1      		ldi r29,29
 160               		1:
 161 008e CC0C      		lsl r12
 162 0090 DD1C      		rol r13
 163 0092 EE1C      		rol r14
 164 0094 FF1C      		rol r15
 165 0096 DA95      		dec r29
 166 0098 01F4      		brne 1b
 167 009a C02A      		or r12,r16
 168 009c D12A      		or r13,r17
 169 009e E22A      		or r14,r18
 170 00a0 F32A      		or r15,r19
 171               	.LVL5:
  51:../crypto/avrcryptolib//lea/lea_enc.c **** 	X1 = ROL((X0 ^ key->rk[  0]) + (X1 ^ key->rk[  1]), 9);
 172               		.loc 1 51 0
 173 00a2 8484      		ldd r8,Z+12
 174 00a4 9584      		ldd r9,Z+13
 175 00a6 A684      		ldd r10,Z+14
 176 00a8 B784      		ldd r11,Z+15
 177 00aa 8426      		eor r8,r20
 178 00ac 9526      		eor r9,r21
 179 00ae A626      		eor r10,r22
 180 00b0 B726      		eor r11,r23
 181 00b2 4085      		ldd r20,Z+8
 182 00b4 5185      		ldd r21,Z+9
 183 00b6 6285      		ldd r22,Z+10
 184 00b8 7385      		ldd r23,Z+11
 185               	.LVL6:
 186 00ba 4827      		eor r20,r24
 187 00bc 5927      		eor r21,r25
 188 00be 6A27      		eor r22,r26
 189 00c0 7B27      		eor r23,r27
 190 00c2 840E      		add r8,r20
 191 00c4 951E      		adc r9,r21
 192 00c6 A61E      		adc r10,r22
 193 00c8 B71E      		adc r11,r23
 194 00ca B501      		movw r22,r10
 195 00cc A401      		movw r20,r8
 196 00ce 15E0      		ldi r17,5
 197               		1:
 198 00d0 7695      		lsr r23
 199 00d2 6795      		ror r22
 200 00d4 5795      		ror r21
 201 00d6 4795      		ror r20
 202 00d8 1A95      		dec r17
 203 00da 01F4      		brne 1b
 204 00dc 0BE1      		ldi r16,27
 205               		1:
 206 00de 880C      		lsl r8
 207 00e0 991C      		rol r9
 208 00e2 AA1C      		rol r10
 209 00e4 BB1C      		rol r11
 210 00e6 0A95      		dec r16
 211 00e8 01F4      		brne 1b
 212 00ea 842A      		or r8,r20
 213 00ec 952A      		or r9,r21
 214 00ee A62A      		or r10,r22
 215 00f0 B72A      		or r11,r23
 216               	.LVL7:
  52:../crypto/avrcryptolib//lea/lea_enc.c **** 	X0 = ROR((X3 ^ key->rk[ 10]) + (X0 ^ key->rk[ 11]), 3);
 217               		.loc 1 52 0
 218 00f2 0481      		ldd r16,Z+4
 219 00f4 1581      		ldd r17,Z+5
 220 00f6 2681      		ldd r18,Z+6
 221 00f8 3781      		ldd r19,Z+7
 222 00fa 0827      		eor r16,r24
 223 00fc 1927      		eor r17,r25
 224 00fe 2A27      		eor r18,r26
 225 0100 3B27      		eor r19,r27
 226 0102 8081      		ld r24,Z
 227 0104 9181      		ldd r25,Z+1
 228 0106 A281      		ldd r26,Z+2
 229 0108 B381      		ldd r27,Z+3
 230               	.LVL8:
 231 010a 8425      		eor r24,r4
 232 010c 9525      		eor r25,r5
 233 010e A625      		eor r26,r6
 234 0110 B725      		eor r27,r7
 235 0112 080F      		add r16,r24
 236 0114 191F      		adc r17,r25
 237 0116 2A1F      		adc r18,r26
 238 0118 3B1F      		adc r19,r27
 239 011a D901      		movw r26,r18
 240 011c C801      		movw r24,r16
 241 011e 47E1      		ldi r20,23
 242               		1:
 243 0120 B695      		lsr r27
 244 0122 A795      		ror r26
 245 0124 9795      		ror r25
 246 0126 8795      		ror r24
 247 0128 4A95      		dec r20
 248 012a 01F4      		brne 1b
 249 012c 59E0      		ldi r21,9
 250               		1:
 251 012e 000F      		lsl r16
 252 0130 111F      		rol r17
 253 0132 221F      		rol r18
 254 0134 331F      		rol r19
 255 0136 5A95      		dec r21
 256 0138 01F4      		brne 1b
 257 013a 082B      		or r16,r24
 258 013c 192B      		or r17,r25
 259 013e 2A2B      		or r18,r26
 260 0140 3B2B      		or r19,r27
 261               	.LVL9:
  53:../crypto/avrcryptolib//lea/lea_enc.c **** 	X3 = ROR((X2 ^ key->rk[  8]) + (X3 ^ key->rk[  9]), 5);
 262               		.loc 1 53 0
 263 0142 40A5      		ldd r20,Z+40
 264 0144 51A5      		ldd r21,Z+41
 265 0146 62A5      		ldd r22,Z+42
 266 0148 73A5      		ldd r23,Z+43
 267 014a 4C25      		eor r20,r12
 268 014c 5D25      		eor r21,r13
 269 014e 6E25      		eor r22,r14
 270 0150 7F25      		eor r23,r15
 271 0152 84A5      		ldd r24,Z+44
 272 0154 95A5      		ldd r25,Z+45
 273 0156 A6A5      		ldd r26,Z+46
 274 0158 B7A5      		ldd r27,Z+47
 275 015a 8425      		eor r24,r4
 276 015c 9525      		eor r25,r5
 277 015e A625      		eor r26,r6
 278 0160 B725      		eor r27,r7
 279 0162 480F      		add r20,r24
 280 0164 591F      		adc r21,r25
 281 0166 6A1F      		adc r22,r26
 282 0168 7B1F      		adc r23,r27
 283 016a DB01      		movw r26,r22
 284 016c CA01      		movw r24,r20
 285 016e C3E0      		ldi r28,3
 286               		1:
 287 0170 B695      		lsr r27
 288 0172 A795      		ror r26
 289 0174 9795      		ror r25
 290 0176 8795      		ror r24
 291 0178 CA95      		dec r28
 292 017a 01F4      		brne 1b
 293 017c DDE1      		ldi r29,29
 294               		1:
 295 017e 440F      		lsl r20
 296 0180 551F      		rol r21
 297 0182 661F      		rol r22
 298 0184 771F      		rol r23
 299 0186 DA95      		dec r29
 300 0188 01F4      		brne 1b
 301 018a 482B      		or r20,r24
 302 018c 592B      		or r21,r25
 303 018e 6A2B      		or r22,r26
 304 0190 7B2B      		or r23,r27
 305               	.LVL10:
  54:../crypto/avrcryptolib//lea/lea_enc.c **** 	X2 = ROL((X1 ^ key->rk[  6]) + (X2 ^ key->rk[  7]), 9);
 306               		.loc 1 54 0
 307 0192 84A1      		ldd r24,Z+36
 308 0194 95A1      		ldd r25,Z+37
 309 0196 A6A1      		ldd r26,Z+38
 310 0198 B7A1      		ldd r27,Z+39
 311 019a 8C25      		eor r24,r12
 312 019c 9D25      		eor r25,r13
 313 019e AE25      		eor r26,r14
 314 01a0 BF25      		eor r27,r15
 315 01a2 C0A0      		ldd r12,Z+32
 316 01a4 D1A0      		ldd r13,Z+33
 317 01a6 E2A0      		ldd r14,Z+34
 318 01a8 F3A0      		ldd r15,Z+35
 319               	.LVL11:
 320 01aa C824      		eor r12,r8
 321 01ac D924      		eor r13,r9
 322 01ae EA24      		eor r14,r10
 323 01b0 FB24      		eor r15,r11
 324 01b2 8C0D      		add r24,r12
 325 01b4 9D1D      		adc r25,r13
 326 01b6 AE1D      		adc r26,r14
 327 01b8 BF1D      		adc r27,r15
 328 01ba 6C01      		movw r12,r24
 329 01bc 7D01      		movw r14,r26
 330 01be C5E0      		ldi r28,5
 331               		1:
 332 01c0 F694      		lsr r15
 333 01c2 E794      		ror r14
 334 01c4 D794      		ror r13
 335 01c6 C794      		ror r12
 336 01c8 CA95      		dec r28
 337 01ca 01F4      		brne 1b
 338 01cc DBE1      		ldi r29,27
 339               		1:
 340 01ce 880F      		lsl r24
 341 01d0 991F      		rol r25
 342 01d2 AA1F      		rol r26
 343 01d4 BB1F      		rol r27
 344 01d6 DA95      		dec r29
 345 01d8 01F4      		brne 1b
 346 01da 8C29      		or r24,r12
 347 01dc 9D29      		or r25,r13
 348 01de AE29      		or r26,r14
 349 01e0 BF29      		or r27,r15
 350               	.LVL12:
  55:../crypto/avrcryptolib//lea/lea_enc.c **** 	X1 = ROR((X0 ^ key->rk[ 16]) + (X1 ^ key->rk[ 17]), 3);
 351               		.loc 1 55 0
 352 01e2 C48C      		ldd r12,Z+28
 353 01e4 D58C      		ldd r13,Z+29
 354 01e6 E68C      		ldd r14,Z+30
 355 01e8 F78C      		ldd r15,Z+31
 356 01ea C824      		eor r12,r8
 357 01ec D924      		eor r13,r9
 358 01ee EA24      		eor r14,r10
 359 01f0 FB24      		eor r15,r11
 360 01f2 808C      		ldd r8,Z+24
 361 01f4 918C      		ldd r9,Z+25
 362 01f6 A28C      		ldd r10,Z+26
 363 01f8 B38C      		ldd r11,Z+27
 364               	.LVL13:
 365 01fa 8026      		eor r8,r16
 366 01fc 9126      		eor r9,r17
 367 01fe A226      		eor r10,r18
 368 0200 B326      		eor r11,r19
 369 0202 C80C      		add r12,r8
 370 0204 D91C      		adc r13,r9
 371 0206 EA1C      		adc r14,r10
 372 0208 FB1C      		adc r15,r11
 373 020a 4601      		movw r8,r12
 374 020c 5701      		movw r10,r14
 375 020e C7E1      		ldi r28,23
 376               		1:
 377 0210 B694      		lsr r11
 378 0212 A794      		ror r10
 379 0214 9794      		ror r9
 380 0216 8794      		ror r8
 381 0218 CA95      		dec r28
 382 021a 01F4      		brne 1b
 383 021c D9E0      		ldi r29,9
 384               		1:
 385 021e CC0C      		lsl r12
 386 0220 DD1C      		rol r13
 387 0222 EE1C      		rol r14
 388 0224 FF1C      		rol r15
 389 0226 DA95      		dec r29
 390 0228 01F4      		brne 1b
 391 022a C828      		or r12,r8
 392 022c D928      		or r13,r9
 393 022e EA28      		or r14,r10
 394 0230 FB28      		or r15,r11
 395               	.LVL14:
  56:../crypto/avrcryptolib//lea/lea_enc.c **** 	X0 = ROR((X3 ^ key->rk[ 14]) + (X0 ^ key->rk[ 15]), 5);
 396               		.loc 1 56 0
 397 0232 EF01      		movw r28,r30
 398 0234 C05C      		subi r28,-64
 399 0236 DF4F      		sbci r29,-1
 400 0238 8880      		ld r8,Y
 401 023a 9980      		ldd r9,Y+1
 402 023c AA80      		ldd r10,Y+2
 403 023e BB80      		ldd r11,Y+3
 404 0240 8426      		eor r8,r20
 405 0242 9526      		eor r9,r21
 406 0244 A626      		eor r10,r22
 407 0246 B726      		eor r11,r23
 408 0248 2496      		adiw r28,4
 409 024a 4880      		ld r4,Y
 410 024c 5980      		ldd r5,Y+1
 411 024e 6A80      		ldd r6,Y+2
 412 0250 7B80      		ldd r7,Y+3
 413 0252 4026      		eor r4,r16
 414 0254 5126      		eor r5,r17
 415 0256 6226      		eor r6,r18
 416 0258 7326      		eor r7,r19
 417 025a 840C      		add r8,r4
 418 025c 951C      		adc r9,r5
 419 025e A61C      		adc r10,r6
 420 0260 B71C      		adc r11,r7
 421 0262 9501      		movw r18,r10
 422 0264 8401      		movw r16,r8
 423               	.LVL15:
 424 0266 6894      		set
 425 0268 12F8      		bld __zero_reg__,3-1
 426               		1:
 427 026a 3695      		lsr r19
 428 026c 2795      		ror r18
 429 026e 1795      		ror r17
 430 0270 0795      		ror r16
 431 0272 1694      		lsr __zero_reg__
 432 0274 01F4      		brne 1b
 433 0276 072E      		mov r0,r23
 434 0278 7DE1      		ldi r23,29
 435               		1:
 436 027a 880C      		lsl r8
 437 027c 991C      		rol r9
 438 027e AA1C      		rol r10
 439 0280 BB1C      		rol r11
 440 0282 7A95      		dec r23
 441 0284 01F4      		brne 1b
 442 0286 702D      		mov r23,r0
 443 0288 802A      		or r8,r16
 444 028a 912A      		or r9,r17
 445 028c A22A      		or r10,r18
 446 028e B32A      		or r11,r19
 447               	.LVL16:
  57:../crypto/avrcryptolib//lea/lea_enc.c **** 	X3 = ROL((X2 ^ key->rk[ 12]) + (X3 ^ key->rk[ 13]), 9);
 448               		.loc 1 57 0
 449 0290 04AD      		ldd r16,Z+60
 450 0292 15AD      		ldd r17,Z+61
 451 0294 26AD      		ldd r18,Z+62
 452 0296 37AD      		ldd r19,Z+63
 453 0298 0427      		eor r16,r20
 454 029a 1527      		eor r17,r21
 455 029c 2627      		eor r18,r22
 456 029e 3727      		eor r19,r23
 457 02a0 40AD      		ldd r20,Z+56
 458 02a2 51AD      		ldd r21,Z+57
 459 02a4 62AD      		ldd r22,Z+58
 460 02a6 73AD      		ldd r23,Z+59
 461               	.LVL17:
 462 02a8 4827      		eor r20,r24
 463 02aa 5927      		eor r21,r25
 464 02ac 6A27      		eor r22,r26
 465 02ae 7B27      		eor r23,r27
 466 02b0 040F      		add r16,r20
 467 02b2 151F      		adc r17,r21
 468 02b4 261F      		adc r18,r22
 469 02b6 371F      		adc r19,r23
 470 02b8 B901      		movw r22,r18
 471 02ba A801      		movw r20,r16
 472 02bc 6894      		set
 473 02be 14F8      		bld __zero_reg__,5-1
 474               		1:
 475 02c0 7695      		lsr r23
 476 02c2 6795      		ror r22
 477 02c4 5795      		ror r21
 478 02c6 4795      		ror r20
 479 02c8 1694      		lsr __zero_reg__
 480 02ca 01F4      		brne 1b
 481 02cc 0F2E      		mov r0,r31
 482 02ce FBE1      		ldi r31,27
 483               		1:
 484 02d0 000F      		lsl r16
 485 02d2 111F      		rol r17
 486 02d4 221F      		rol r18
 487 02d6 331F      		rol r19
 488 02d8 FA95      		dec r31
 489 02da 01F4      		brne 1b
 490 02dc F02D      		mov r31,r0
 491 02de 042B      		or r16,r20
 492 02e0 152B      		or r17,r21
 493 02e2 262B      		or r18,r22
 494 02e4 372B      		or r19,r23
 495               	.LVL18:
  58:../crypto/avrcryptolib//lea/lea_enc.c **** 	X2 = ROR((X1 ^ key->rk[ 22]) + (X2 ^ key->rk[ 23]), 3);
 496               		.loc 1 58 0
 497 02e6 44A8      		ldd r4,Z+52
 498 02e8 55A8      		ldd r5,Z+53
 499 02ea 66A8      		ldd r6,Z+54
 500 02ec 77A8      		ldd r7,Z+55
 501 02ee 4826      		eor r4,r24
 502 02f0 5926      		eor r5,r25
 503 02f2 6A26      		eor r6,r26
 504 02f4 7B26      		eor r7,r27
 505 02f6 80A9      		ldd r24,Z+48
 506 02f8 91A9      		ldd r25,Z+49
 507 02fa A2A9      		ldd r26,Z+50
 508 02fc B3A9      		ldd r27,Z+51
 509               	.LVL19:
 510 02fe 8C25      		eor r24,r12
 511 0300 9D25      		eor r25,r13
 512 0302 AE25      		eor r26,r14
 513 0304 BF25      		eor r27,r15
 514 0306 480E      		add r4,r24
 515 0308 591E      		adc r5,r25
 516 030a 6A1E      		adc r6,r26
 517 030c 7B1E      		adc r7,r27
 518 030e D301      		movw r26,r6
 519 0310 C201      		movw r24,r4
 520 0312 47E1      		ldi r20,23
 521               		1:
 522 0314 B695      		lsr r27
 523 0316 A795      		ror r26
 524 0318 9795      		ror r25
 525 031a 8795      		ror r24
 526 031c 4A95      		dec r20
 527 031e 01F4      		brne 1b
 528 0320 59E0      		ldi r21,9
 529               		1:
 530 0322 440C      		lsl r4
 531 0324 551C      		rol r5
 532 0326 661C      		rol r6
 533 0328 771C      		rol r7
 534 032a 5A95      		dec r21
 535 032c 01F4      		brne 1b
 536 032e 482A      		or r4,r24
 537 0330 592A      		or r5,r25
 538 0332 6A2A      		or r6,r26
 539 0334 7B2A      		or r7,r27
 540               	.LVL20:
  59:../crypto/avrcryptolib//lea/lea_enc.c **** 	X1 = ROR((X0 ^ key->rk[ 20]) + (X1 ^ key->rk[ 21]), 5);
 541               		.loc 1 59 0
 542 0336 DF01      		movw r26,r30
 543 0338 A85A      		subi r26,-88
 544 033a BF4F      		sbci r27,-1
 545 033c 4D91      		ld r20,X+
 546 033e 5D91      		ld r21,X+
 547 0340 6D91      		ld r22,X+
 548 0342 7C91      		ld r23,X
 549 0344 1397      		sbiw r26,3
 550 0346 4825      		eor r20,r8
 551 0348 5925      		eor r21,r9
 552 034a 6A25      		eor r22,r10
 553 034c 7B25      		eor r23,r11
 554 034e 1496      		adiw r26,4
 555 0350 8D91      		ld r24,X+
 556 0352 9D91      		ld r25,X+
 557 0354 0D90      		ld __tmp_reg__,X+
 558 0356 BC91      		ld r27,X
 559 0358 A02D      		mov r26,__tmp_reg__
 560 035a 8C25      		eor r24,r12
 561 035c 9D25      		eor r25,r13
 562 035e AE25      		eor r26,r14
 563 0360 BF25      		eor r27,r15
 564 0362 480F      		add r20,r24
 565 0364 591F      		adc r21,r25
 566 0366 6A1F      		adc r22,r26
 567 0368 7B1F      		adc r23,r27
 568 036a DB01      		movw r26,r22
 569 036c CA01      		movw r24,r20
 570 036e 6894      		set
 571 0370 12F8      		bld __zero_reg__,3-1
 572               		1:
 573 0372 B695      		lsr r27
 574 0374 A795      		ror r26
 575 0376 9795      		ror r25
 576 0378 8795      		ror r24
 577 037a 1694      		lsr __zero_reg__
 578 037c 01F4      		brne 1b
 579 037e 032E      		mov r0,r19
 580 0380 3DE1      		ldi r19,29
 581               		1:
 582 0382 440F      		lsl r20
 583 0384 551F      		rol r21
 584 0386 661F      		rol r22
 585 0388 771F      		rol r23
 586 038a 3A95      		dec r19
 587 038c 01F4      		brne 1b
 588 038e 302D      		mov r19,r0
 589 0390 482B      		or r20,r24
 590 0392 592B      		or r21,r25
 591 0394 6A2B      		or r22,r26
 592 0396 7B2B      		or r23,r27
 593               	.LVL21:
  60:../crypto/avrcryptolib//lea/lea_enc.c **** 	X0 = ROL((X3 ^ key->rk[ 18]) + (X0 ^ key->rk[ 19]), 9);
 594               		.loc 1 60 0
 595 0398 DF01      		movw r26,r30
 596 039a AC5A      		subi r26,-84
 597 039c BF4F      		sbci r27,-1
 598 039e CD90      		ld r12,X+
 599 03a0 DD90      		ld r13,X+
 600 03a2 ED90      		ld r14,X+
 601 03a4 FC90      		ld r15,X
 602 03a6 1397      		sbiw r26,3
 603 03a8 C824      		eor r12,r8
 604 03aa D924      		eor r13,r9
 605 03ac EA24      		eor r14,r10
 606 03ae FB24      		eor r15,r11
 607 03b0 1497      		sbiw r26,4
 608 03b2 8D91      		ld r24,X+
 609 03b4 9D91      		ld r25,X+
 610 03b6 0D90      		ld __tmp_reg__,X+
 611 03b8 BC91      		ld r27,X
 612 03ba A02D      		mov r26,__tmp_reg__
 613 03bc 8027      		eor r24,r16
 614 03be 9127      		eor r25,r17
 615 03c0 A227      		eor r26,r18
 616 03c2 B327      		eor r27,r19
 617 03c4 C80E      		add r12,r24
 618 03c6 D91E      		adc r13,r25
 619 03c8 EA1E      		adc r14,r26
 620 03ca FB1E      		adc r15,r27
 621 03cc D701      		movw r26,r14
 622 03ce C601      		movw r24,r12
 623 03d0 6894      		set
 624 03d2 14F8      		bld __zero_reg__,5-1
 625               		1:
 626 03d4 B695      		lsr r27
 627 03d6 A795      		ror r26
 628 03d8 9795      		ror r25
 629 03da 8795      		ror r24
 630 03dc 1694      		lsr __zero_reg__
 631 03de 01F4      		brne 1b
 632 03e0 0B2E      		mov r0,r27
 633 03e2 BBE1      		ldi r27,27
 634               		1:
 635 03e4 CC0C      		lsl r12
 636 03e6 DD1C      		rol r13
 637 03e8 EE1C      		rol r14
 638 03ea FF1C      		rol r15
 639 03ec BA95      		dec r27
 640 03ee 01F4      		brne 1b
 641 03f0 B02D      		mov r27,r0
 642 03f2 C82A      		or r12,r24
 643 03f4 D92A      		or r13,r25
 644 03f6 EA2A      		or r14,r26
 645 03f8 FB2A      		or r15,r27
 646               	.LVL22:
  61:../crypto/avrcryptolib//lea/lea_enc.c **** 	
 647               		.loc 1 61 0
 648 03fa DF01      		movw r26,r30
 649 03fc A45B      		subi r26,-76
 650 03fe BF4F      		sbci r27,-1
 651 0400 8D90      		ld r8,X+
 652 0402 9D90      		ld r9,X+
 653 0404 AD90      		ld r10,X+
 654 0406 BC90      		ld r11,X
 655 0408 1397      		sbiw r26,3
 656 040a 8026      		eor r8,r16
 657 040c 9126      		eor r9,r17
 658 040e A226      		eor r10,r18
 659 0410 B326      		eor r11,r19
 660 0412 1497      		sbiw r26,4
 661 0414 8D91      		ld r24,X+
 662 0416 9D91      		ld r25,X+
 663 0418 0D90      		ld __tmp_reg__,X+
 664 041a BC91      		ld r27,X
 665 041c A02D      		mov r26,__tmp_reg__
 666 041e 8425      		eor r24,r4
 667 0420 9525      		eor r25,r5
 668 0422 A625      		eor r26,r6
 669 0424 B725      		eor r27,r7
 670 0426 880E      		add r8,r24
 671 0428 991E      		adc r9,r25
 672 042a AA1E      		adc r10,r26
 673 042c BB1E      		adc r11,r27
 674 042e D501      		movw r26,r10
 675 0430 C401      		movw r24,r8
 676 0432 27E1      		ldi r18,23
 677               		1:
 678 0434 B695      		lsr r27
 679 0436 A795      		ror r26
 680 0438 9795      		ror r25
 681 043a 8795      		ror r24
 682 043c 2A95      		dec r18
 683 043e 01F4      		brne 1b
 684 0440 39E0      		ldi r19,9
 685               		1:
 686 0442 880C      		lsl r8
 687 0444 991C      		rol r9
 688 0446 AA1C      		rol r10
 689 0448 BB1C      		rol r11
 690 044a 3A95      		dec r19
 691 044c 01F4      		brne 1b
 692 044e 882A      		or r8,r24
 693 0450 992A      		or r9,r25
 694 0452 AA2A      		or r10,r26
 695 0454 BB2A      		or r11,r27
 696               	.LVL23:
  63:../crypto/avrcryptolib//lea/lea_enc.c **** 	X2 = ROR((X1 ^ key->rk[ 26]) + (X2 ^ key->rk[ 27]), 5);
 697               		.loc 1 63 0
 698 0456 DF01      		movw r26,r30
 699 0458 A059      		subi r26,-112
 700 045a BF4F      		sbci r27,-1
 701 045c 0D91      		ld r16,X+
 702 045e 1D91      		ld r17,X+
 703 0460 2D91      		ld r18,X+
 704 0462 3C91      		ld r19,X
 705 0464 1397      		sbiw r26,3
 706 0466 0427      		eor r16,r20
 707 0468 1527      		eor r17,r21
 708 046a 2627      		eor r18,r22
 709 046c 3727      		eor r19,r23
 710 046e 1496      		adiw r26,4
 711 0470 8D91      		ld r24,X+
 712 0472 9D91      		ld r25,X+
 713 0474 0D90      		ld __tmp_reg__,X+
 714 0476 BC91      		ld r27,X
 715 0478 A02D      		mov r26,__tmp_reg__
 716 047a 8425      		eor r24,r4
 717 047c 9525      		eor r25,r5
 718 047e A625      		eor r26,r6
 719 0480 B725      		eor r27,r7
 720 0482 080F      		add r16,r24
 721 0484 191F      		adc r17,r25
 722 0486 2A1F      		adc r18,r26
 723 0488 3B1F      		adc r19,r27
 724 048a D901      		movw r26,r18
 725 048c C801      		movw r24,r16
 726 048e 6894      		set
 727 0490 12F8      		bld __zero_reg__,3-1
 728               		1:
 729 0492 B695      		lsr r27
 730 0494 A795      		ror r26
 731 0496 9795      		ror r25
 732 0498 8795      		ror r24
 733 049a 1694      		lsr __zero_reg__
 734 049c 01F4      		brne 1b
 735 049e 0F2E      		mov r0,r31
 736 04a0 FDE1      		ldi r31,29
 737               		1:
 738 04a2 000F      		lsl r16
 739 04a4 111F      		rol r17
 740 04a6 221F      		rol r18
 741 04a8 331F      		rol r19
 742 04aa FA95      		dec r31
 743 04ac 01F4      		brne 1b
 744 04ae F02D      		mov r31,r0
 745 04b0 082B      		or r16,r24
 746 04b2 192B      		or r17,r25
 747 04b4 2A2B      		or r18,r26
 748 04b6 3B2B      		or r19,r27
 749               	.LVL24:
  64:../crypto/avrcryptolib//lea/lea_enc.c **** 	X1 = ROL((X0 ^ key->rk[ 24]) + (X1 ^ key->rk[ 25]), 9);
 750               		.loc 1 64 0
 751 04b8 DF01      		movw r26,r30
 752 04ba A459      		subi r26,-108
 753 04bc BF4F      		sbci r27,-1
 754 04be 4D90      		ld r4,X+
 755 04c0 5D90      		ld r5,X+
 756 04c2 6D90      		ld r6,X+
 757 04c4 7C90      		ld r7,X
 758 04c6 1397      		sbiw r26,3
 759 04c8 4426      		eor r4,r20
 760 04ca 5526      		eor r5,r21
 761 04cc 6626      		eor r6,r22
 762 04ce 7726      		eor r7,r23
 763 04d0 1497      		sbiw r26,4
 764 04d2 8D91      		ld r24,X+
 765 04d4 9D91      		ld r25,X+
 766 04d6 0D90      		ld __tmp_reg__,X+
 767 04d8 BC91      		ld r27,X
 768 04da A02D      		mov r26,__tmp_reg__
 769 04dc 8C25      		eor r24,r12
 770 04de 9D25      		eor r25,r13
 771 04e0 AE25      		eor r26,r14
 772 04e2 BF25      		eor r27,r15
 773 04e4 480E      		add r4,r24
 774 04e6 591E      		adc r5,r25
 775 04e8 6A1E      		adc r6,r26
 776 04ea 7B1E      		adc r7,r27
 777 04ec D301      		movw r26,r6
 778 04ee C201      		movw r24,r4
 779 04f0 45E0      		ldi r20,5
 780               		1:
 781 04f2 B695      		lsr r27
 782 04f4 A795      		ror r26
 783 04f6 9795      		ror r25
 784 04f8 8795      		ror r24
 785 04fa 4A95      		dec r20
 786 04fc 01F4      		brne 1b
 787               	.LVL25:
 788 04fe 5BE1      		ldi r21,27
 789               		1:
 790 0500 440C      		lsl r4
 791 0502 551C      		rol r5
 792 0504 661C      		rol r6
 793 0506 771C      		rol r7
 794 0508 5A95      		dec r21
 795 050a 01F4      		brne 1b
 796 050c 482A      		or r4,r24
 797 050e 592A      		or r5,r25
 798 0510 6A2A      		or r6,r26
 799 0512 7B2A      		or r7,r27
 800               	.LVL26:
  65:../crypto/avrcryptolib//lea/lea_enc.c **** 	X0 = ROR((X3 ^ key->rk[ 34]) + (X0 ^ key->rk[ 35]), 3);
 801               		.loc 1 65 0
 802 0514 DF01      		movw r26,r30
 803 0516 AC59      		subi r26,-100
 804 0518 BF4F      		sbci r27,-1
 805 051a 4D91      		ld r20,X+
 806 051c 5D91      		ld r21,X+
 807 051e 6D91      		ld r22,X+
 808 0520 7C91      		ld r23,X
 809 0522 1397      		sbiw r26,3
 810 0524 4C25      		eor r20,r12
 811 0526 5D25      		eor r21,r13
 812 0528 6E25      		eor r22,r14
 813 052a 7F25      		eor r23,r15
 814 052c 1497      		sbiw r26,4
 815 052e 8D91      		ld r24,X+
 816 0530 9D91      		ld r25,X+
 817 0532 0D90      		ld __tmp_reg__,X+
 818 0534 BC91      		ld r27,X
 819 0536 A02D      		mov r26,__tmp_reg__
 820 0538 8825      		eor r24,r8
 821 053a 9925      		eor r25,r9
 822 053c AA25      		eor r26,r10
 823 053e BB25      		eor r27,r11
 824 0540 480F      		add r20,r24
 825 0542 591F      		adc r21,r25
 826 0544 6A1F      		adc r22,r26
 827 0546 7B1F      		adc r23,r27
 828 0548 DB01      		movw r26,r22
 829 054a CA01      		movw r24,r20
 830 054c 072E      		mov r0,r23
 831 054e 77E1      		ldi r23,23
 832               		1:
 833 0550 B695      		lsr r27
 834 0552 A795      		ror r26
 835 0554 9795      		ror r25
 836 0556 8795      		ror r24
 837 0558 7A95      		dec r23
 838 055a 01F4      		brne 1b
 839 055c 702D      		mov r23,r0
 840 055e 032E      		mov r0,r19
 841 0560 39E0      		ldi r19,9
 842               		1:
 843 0562 440F      		lsl r20
 844 0564 551F      		rol r21
 845 0566 661F      		rol r22
 846 0568 771F      		rol r23
 847 056a 3A95      		dec r19
 848 056c 01F4      		brne 1b
 849 056e 302D      		mov r19,r0
 850 0570 482B      		or r20,r24
 851 0572 592B      		or r21,r25
 852 0574 6A2B      		or r22,r26
 853 0576 7B2B      		or r23,r27
 854               	.LVL27:
  66:../crypto/avrcryptolib//lea/lea_enc.c **** 	X3 = ROR((X2 ^ key->rk[ 32]) + (X3 ^ key->rk[ 33]), 5);
 855               		.loc 1 66 0
 856 0578 DF01      		movw r26,r30
 857 057a A857      		subi r26,120
 858 057c BF4F      		sbci r27,-1
 859 057e CD90      		ld r12,X+
 860 0580 DD90      		ld r13,X+
 861 0582 ED90      		ld r14,X+
 862 0584 FC90      		ld r15,X
 863 0586 1397      		sbiw r26,3
 864 0588 C026      		eor r12,r16
 865 058a D126      		eor r13,r17
 866 058c E226      		eor r14,r18
 867 058e F326      		eor r15,r19
 868 0590 1496      		adiw r26,4
 869 0592 8D91      		ld r24,X+
 870 0594 9D91      		ld r25,X+
 871 0596 0D90      		ld __tmp_reg__,X+
 872 0598 BC91      		ld r27,X
 873 059a A02D      		mov r26,__tmp_reg__
 874 059c 8825      		eor r24,r8
 875 059e 9925      		eor r25,r9
 876 05a0 AA25      		eor r26,r10
 877 05a2 BB25      		eor r27,r11
 878 05a4 C80E      		add r12,r24
 879 05a6 D91E      		adc r13,r25
 880 05a8 EA1E      		adc r14,r26
 881 05aa FB1E      		adc r15,r27
 882 05ac D701      		movw r26,r14
 883 05ae C601      		movw r24,r12
 884 05b0 6894      		set
 885 05b2 12F8      		bld __zero_reg__,3-1
 886               		1:
 887 05b4 B695      		lsr r27
 888 05b6 A795      		ror r26
 889 05b8 9795      		ror r25
 890 05ba 8795      		ror r24
 891 05bc 1694      		lsr __zero_reg__
 892 05be 01F4      		brne 1b
 893 05c0 0B2E      		mov r0,r27
 894 05c2 BDE1      		ldi r27,29
 895               		1:
 896 05c4 CC0C      		lsl r12
 897 05c6 DD1C      		rol r13
 898 05c8 EE1C      		rol r14
 899 05ca FF1C      		rol r15
 900 05cc BA95      		dec r27
 901 05ce 01F4      		brne 1b
 902 05d0 B02D      		mov r27,r0
 903 05d2 C82A      		or r12,r24
 904 05d4 D92A      		or r13,r25
 905 05d6 EA2A      		or r14,r26
 906 05d8 FB2A      		or r15,r27
 907               	.LVL28:
  67:../crypto/avrcryptolib//lea/lea_enc.c **** 	X2 = ROL((X1 ^ key->rk[ 30]) + (X2 ^ key->rk[ 31]), 9);
 908               		.loc 1 67 0
 909 05da DF01      		movw r26,r30
 910 05dc AC57      		subi r26,124
 911 05de BF4F      		sbci r27,-1
 912 05e0 8D90      		ld r8,X+
 913 05e2 9D90      		ld r9,X+
 914 05e4 AD90      		ld r10,X+
 915 05e6 BC90      		ld r11,X
 916 05e8 1397      		sbiw r26,3
 917 05ea 8026      		eor r8,r16
 918 05ec 9126      		eor r9,r17
 919 05ee A226      		eor r10,r18
 920 05f0 B326      		eor r11,r19
 921 05f2 1497      		sbiw r26,4
 922 05f4 8D91      		ld r24,X+
 923 05f6 9D91      		ld r25,X+
 924 05f8 0D90      		ld __tmp_reg__,X+
 925 05fa BC91      		ld r27,X
 926 05fc A02D      		mov r26,__tmp_reg__
 927 05fe 8425      		eor r24,r4
 928 0600 9525      		eor r25,r5
 929 0602 A625      		eor r26,r6
 930 0604 B725      		eor r27,r7
 931 0606 880E      		add r8,r24
 932 0608 991E      		adc r9,r25
 933 060a AA1E      		adc r10,r26
 934 060c BB1E      		adc r11,r27
 935 060e D501      		movw r26,r10
 936 0610 C401      		movw r24,r8
 937 0612 25E0      		ldi r18,5
 938               		1:
 939 0614 B695      		lsr r27
 940 0616 A795      		ror r26
 941 0618 9795      		ror r25
 942 061a 8795      		ror r24
 943 061c 2A95      		dec r18
 944 061e 01F4      		brne 1b
 945 0620 3BE1      		ldi r19,27
 946               		1:
 947 0622 880C      		lsl r8
 948 0624 991C      		rol r9
 949 0626 AA1C      		rol r10
 950 0628 BB1C      		rol r11
 951 062a 3A95      		dec r19
 952 062c 01F4      		brne 1b
 953 062e 882A      		or r8,r24
 954 0630 992A      		or r9,r25
 955 0632 AA2A      		or r10,r26
 956 0634 BB2A      		or r11,r27
 957               	.LVL29:
  68:../crypto/avrcryptolib//lea/lea_enc.c **** 	X1 = ROR((X0 ^ key->rk[ 40]) + (X1 ^ key->rk[ 41]), 3);
 958               		.loc 1 68 0
 959 0636 DF01      		movw r26,r30
 960 0638 A458      		subi r26,-124
 961 063a BF4F      		sbci r27,-1
 962 063c 0D91      		ld r16,X+
 963 063e 1D91      		ld r17,X+
 964 0640 2D91      		ld r18,X+
 965 0642 3C91      		ld r19,X
 966 0644 1397      		sbiw r26,3
 967 0646 0425      		eor r16,r4
 968 0648 1525      		eor r17,r5
 969 064a 2625      		eor r18,r6
 970 064c 3725      		eor r19,r7
 971 064e 1497      		sbiw r26,4
 972 0650 8D91      		ld r24,X+
 973 0652 9D91      		ld r25,X+
 974 0654 0D90      		ld __tmp_reg__,X+
 975 0656 BC91      		ld r27,X
 976 0658 A02D      		mov r26,__tmp_reg__
 977 065a 8427      		eor r24,r20
 978 065c 9527      		eor r25,r21
 979 065e A627      		eor r26,r22
 980 0660 B727      		eor r27,r23
 981 0662 080F      		add r16,r24
 982 0664 191F      		adc r17,r25
 983 0666 2A1F      		adc r18,r26
 984 0668 3B1F      		adc r19,r27
 985 066a D901      		movw r26,r18
 986 066c C801      		movw r24,r16
 987 066e 072E      		mov r0,r23
 988 0670 77E1      		ldi r23,23
 989               		1:
 990 0672 B695      		lsr r27
 991 0674 A795      		ror r26
 992 0676 9795      		ror r25
 993 0678 8795      		ror r24
 994 067a 7A95      		dec r23
 995 067c 01F4      		brne 1b
 996 067e 702D      		mov r23,r0
 997 0680 0F2E      		mov r0,r31
 998 0682 F9E0      		ldi r31,9
 999               		1:
 1000 0684 000F      		lsl r16
 1001 0686 111F      		rol r17
 1002 0688 221F      		rol r18
 1003 068a 331F      		rol r19
 1004 068c FA95      		dec r31
 1005 068e 01F4      		brne 1b
 1006 0690 F02D      		mov r31,r0
 1007 0692 082B      		or r16,r24
 1008 0694 192B      		or r17,r25
 1009 0696 2A2B      		or r18,r26
 1010 0698 3B2B      		or r19,r27
 1011               	.LVL30:
  69:../crypto/avrcryptolib//lea/lea_enc.c **** 	X0 = ROR((X3 ^ key->rk[ 38]) + (X0 ^ key->rk[ 39]), 5);
 1012               		.loc 1 69 0
 1013 069a DF01      		movw r26,r30
 1014 069c A056      		subi r26,96
 1015 069e BF4F      		sbci r27,-1
 1016 06a0 4D90      		ld r4,X+
 1017 06a2 5D90      		ld r5,X+
 1018 06a4 6D90      		ld r6,X+
 1019 06a6 7C90      		ld r7,X
 1020 06a8 1397      		sbiw r26,3
 1021 06aa 4C24      		eor r4,r12
 1022 06ac 5D24      		eor r5,r13
 1023 06ae 6E24      		eor r6,r14
 1024 06b0 7F24      		eor r7,r15
 1025 06b2 1496      		adiw r26,4
 1026 06b4 8D91      		ld r24,X+
 1027 06b6 9D91      		ld r25,X+
 1028 06b8 0D90      		ld __tmp_reg__,X+
 1029 06ba BC91      		ld r27,X
 1030 06bc A02D      		mov r26,__tmp_reg__
 1031 06be 8427      		eor r24,r20
 1032 06c0 9527      		eor r25,r21
 1033 06c2 A627      		eor r26,r22
 1034 06c4 B727      		eor r27,r23
 1035 06c6 480E      		add r4,r24
 1036 06c8 591E      		adc r5,r25
 1037 06ca 6A1E      		adc r6,r26
 1038 06cc 7B1E      		adc r7,r27
 1039 06ce D301      		movw r26,r6
 1040 06d0 C201      		movw r24,r4
 1041 06d2 43E0      		ldi r20,3
 1042               		1:
 1043 06d4 B695      		lsr r27
 1044 06d6 A795      		ror r26
 1045 06d8 9795      		ror r25
 1046 06da 8795      		ror r24
 1047 06dc 4A95      		dec r20
 1048 06de 01F4      		brne 1b
 1049               	.LVL31:
 1050 06e0 5DE1      		ldi r21,29
 1051               		1:
 1052 06e2 440C      		lsl r4
 1053 06e4 551C      		rol r5
 1054 06e6 661C      		rol r6
 1055 06e8 771C      		rol r7
 1056 06ea 5A95      		dec r21
 1057 06ec 01F4      		brne 1b
 1058 06ee 482A      		or r4,r24
 1059 06f0 592A      		or r5,r25
 1060 06f2 6A2A      		or r6,r26
 1061 06f4 7B2A      		or r7,r27
 1062               	.LVL32:
  70:../crypto/avrcryptolib//lea/lea_enc.c **** 	X3 = ROL((X2 ^ key->rk[ 36]) + (X3 ^ key->rk[ 37]), 9);
 1063               		.loc 1 70 0
 1064 06f6 DF01      		movw r26,r30
 1065 06f8 A456      		subi r26,100
 1066 06fa BF4F      		sbci r27,-1
 1067 06fc 4D91      		ld r20,X+
 1068 06fe 5D91      		ld r21,X+
 1069 0700 6D91      		ld r22,X+
 1070 0702 7C91      		ld r23,X
 1071 0704 1397      		sbiw r26,3
 1072 0706 4C25      		eor r20,r12
 1073 0708 5D25      		eor r21,r13
 1074 070a 6E25      		eor r22,r14
 1075 070c 7F25      		eor r23,r15
 1076 070e 1497      		sbiw r26,4
 1077 0710 8D91      		ld r24,X+
 1078 0712 9D91      		ld r25,X+
 1079 0714 0D90      		ld __tmp_reg__,X+
 1080 0716 BC91      		ld r27,X
 1081 0718 A02D      		mov r26,__tmp_reg__
 1082 071a 8825      		eor r24,r8
 1083 071c 9925      		eor r25,r9
 1084 071e AA25      		eor r26,r10
 1085 0720 BB25      		eor r27,r11
 1086 0722 480F      		add r20,r24
 1087 0724 591F      		adc r21,r25
 1088 0726 6A1F      		adc r22,r26
 1089 0728 7B1F      		adc r23,r27
 1090 072a DB01      		movw r26,r22
 1091 072c CA01      		movw r24,r20
 1092 072e 6894      		set
 1093 0730 14F8      		bld __zero_reg__,5-1
 1094               		1:
 1095 0732 B695      		lsr r27
 1096 0734 A795      		ror r26
 1097 0736 9795      		ror r25
 1098 0738 8795      		ror r24
 1099 073a 1694      		lsr __zero_reg__
 1100 073c 01F4      		brne 1b
 1101 073e 032E      		mov r0,r19
 1102 0740 3BE1      		ldi r19,27
 1103               		1:
 1104 0742 440F      		lsl r20
 1105 0744 551F      		rol r21
 1106 0746 661F      		rol r22
 1107 0748 771F      		rol r23
 1108 074a 3A95      		dec r19
 1109 074c 01F4      		brne 1b
 1110 074e 302D      		mov r19,r0
 1111 0750 482B      		or r20,r24
 1112 0752 592B      		or r21,r25
 1113 0754 6A2B      		or r22,r26
 1114 0756 7B2B      		or r23,r27
 1115               	.LVL33:
  71:../crypto/avrcryptolib//lea/lea_enc.c **** 	X2 = ROR((X1 ^ key->rk[ 46]) + (X2 ^ key->rk[ 47]), 3);
 1116               		.loc 1 71 0
 1117 0758 DF01      		movw r26,r30
 1118 075a AC56      		subi r26,108
 1119 075c BF4F      		sbci r27,-1
 1120 075e CD90      		ld r12,X+
 1121 0760 DD90      		ld r13,X+
 1122 0762 ED90      		ld r14,X+
 1123 0764 FC90      		ld r15,X
 1124 0766 1397      		sbiw r26,3
 1125 0768 C824      		eor r12,r8
 1126 076a D924      		eor r13,r9
 1127 076c EA24      		eor r14,r10
 1128 076e FB24      		eor r15,r11
 1129 0770 1497      		sbiw r26,4
 1130 0772 8D91      		ld r24,X+
 1131 0774 9D91      		ld r25,X+
 1132 0776 0D90      		ld __tmp_reg__,X+
 1133 0778 BC91      		ld r27,X
 1134 077a A02D      		mov r26,__tmp_reg__
 1135 077c 8027      		eor r24,r16
 1136 077e 9127      		eor r25,r17
 1137 0780 A227      		eor r26,r18
 1138 0782 B327      		eor r27,r19
 1139 0784 C80E      		add r12,r24
 1140 0786 D91E      		adc r13,r25
 1141 0788 EA1E      		adc r14,r26
 1142 078a FB1E      		adc r15,r27
 1143 078c D701      		movw r26,r14
 1144 078e C601      		movw r24,r12
 1145 0790 072E      		mov r0,r23
 1146 0792 77E1      		ldi r23,23
 1147               		1:
 1148 0794 B695      		lsr r27
 1149 0796 A795      		ror r26
 1150 0798 9795      		ror r25
 1151 079a 8795      		ror r24
 1152 079c 7A95      		dec r23
 1153 079e 01F4      		brne 1b
 1154 07a0 702D      		mov r23,r0
 1155 07a2 0B2E      		mov r0,r27
 1156 07a4 B9E0      		ldi r27,9
 1157               		1:
 1158 07a6 CC0C      		lsl r12
 1159 07a8 DD1C      		rol r13
 1160 07aa EE1C      		rol r14
 1161 07ac FF1C      		rol r15
 1162 07ae BA95      		dec r27
 1163 07b0 01F4      		brne 1b
 1164 07b2 B02D      		mov r27,r0
 1165 07b4 C82A      		or r12,r24
 1166 07b6 D92A      		or r13,r25
 1167 07b8 EA2A      		or r14,r26
 1168 07ba FB2A      		or r15,r27
 1169               	.LVL34:
  72:../crypto/avrcryptolib//lea/lea_enc.c **** 	X1 = ROR((X0 ^ key->rk[ 44]) + (X1 ^ key->rk[ 45]), 5);
 1170               		.loc 1 72 0
 1171 07bc DF01      		movw r26,r30
 1172 07be A854      		subi r26,72
 1173 07c0 BF4F      		sbci r27,-1
 1174 07c2 8D90      		ld r8,X+
 1175 07c4 9D90      		ld r9,X+
 1176 07c6 AD90      		ld r10,X+
 1177 07c8 BC90      		ld r11,X
 1178 07ca 1397      		sbiw r26,3
 1179 07cc 8424      		eor r8,r4
 1180 07ce 9524      		eor r9,r5
 1181 07d0 A624      		eor r10,r6
 1182 07d2 B724      		eor r11,r7
 1183 07d4 1496      		adiw r26,4
 1184 07d6 8D91      		ld r24,X+
 1185 07d8 9D91      		ld r25,X+
 1186 07da 0D90      		ld __tmp_reg__,X+
 1187 07dc BC91      		ld r27,X
 1188 07de A02D      		mov r26,__tmp_reg__
 1189 07e0 8027      		eor r24,r16
 1190 07e2 9127      		eor r25,r17
 1191 07e4 A227      		eor r26,r18
 1192 07e6 B327      		eor r27,r19
 1193 07e8 880E      		add r8,r24
 1194 07ea 991E      		adc r9,r25
 1195 07ec AA1E      		adc r10,r26
 1196 07ee BB1E      		adc r11,r27
 1197 07f0 D501      		movw r26,r10
 1198 07f2 C401      		movw r24,r8
 1199 07f4 23E0      		ldi r18,3
 1200               		1:
 1201 07f6 B695      		lsr r27
 1202 07f8 A795      		ror r26
 1203 07fa 9795      		ror r25
 1204 07fc 8795      		ror r24
 1205 07fe 2A95      		dec r18
 1206 0800 01F4      		brne 1b
 1207 0802 3DE1      		ldi r19,29
 1208               		1:
 1209 0804 880C      		lsl r8
 1210 0806 991C      		rol r9
 1211 0808 AA1C      		rol r10
 1212 080a BB1C      		rol r11
 1213 080c 3A95      		dec r19
 1214 080e 01F4      		brne 1b
 1215 0810 882A      		or r8,r24
 1216 0812 992A      		or r9,r25
 1217 0814 AA2A      		or r10,r26
 1218 0816 BB2A      		or r11,r27
 1219               	.LVL35:
  73:../crypto/avrcryptolib//lea/lea_enc.c **** 	X0 = ROL((X3 ^ key->rk[ 42]) + (X0 ^ key->rk[ 43]), 9);
 1220               		.loc 1 73 0
 1221 0818 DF01      		movw r26,r30
 1222 081a AC54      		subi r26,76
 1223 081c BF4F      		sbci r27,-1
 1224 081e 0D91      		ld r16,X+
 1225 0820 1D91      		ld r17,X+
 1226 0822 2D91      		ld r18,X+
 1227 0824 3C91      		ld r19,X
 1228 0826 1397      		sbiw r26,3
 1229 0828 0425      		eor r16,r4
 1230 082a 1525      		eor r17,r5
 1231 082c 2625      		eor r18,r6
 1232 082e 3725      		eor r19,r7
 1233 0830 1497      		sbiw r26,4
 1234 0832 8D91      		ld r24,X+
 1235 0834 9D91      		ld r25,X+
 1236 0836 0D90      		ld __tmp_reg__,X+
 1237 0838 BC91      		ld r27,X
 1238 083a A02D      		mov r26,__tmp_reg__
 1239 083c 8427      		eor r24,r20
 1240 083e 9527      		eor r25,r21
 1241 0840 A627      		eor r26,r22
 1242 0842 B727      		eor r27,r23
 1243 0844 080F      		add r16,r24
 1244 0846 191F      		adc r17,r25
 1245 0848 2A1F      		adc r18,r26
 1246 084a 3B1F      		adc r19,r27
 1247 084c D901      		movw r26,r18
 1248 084e C801      		movw r24,r16
 1249 0850 6894      		set
 1250 0852 14F8      		bld __zero_reg__,5-1
 1251               		1:
 1252 0854 B695      		lsr r27
 1253 0856 A795      		ror r26
 1254 0858 9795      		ror r25
 1255 085a 8795      		ror r24
 1256 085c 1694      		lsr __zero_reg__
 1257 085e 01F4      		brne 1b
 1258 0860 0F2E      		mov r0,r31
 1259 0862 FBE1      		ldi r31,27
 1260               		1:
 1261 0864 000F      		lsl r16
 1262 0866 111F      		rol r17
 1263 0868 221F      		rol r18
 1264 086a 331F      		rol r19
 1265 086c FA95      		dec r31
 1266 086e 01F4      		brne 1b
 1267 0870 F02D      		mov r31,r0
 1268 0872 082B      		or r16,r24
 1269 0874 192B      		or r17,r25
 1270 0876 2A2B      		or r18,r26
 1271 0878 3B2B      		or r19,r27
 1272               	.LVL36:
  74:../crypto/avrcryptolib//lea/lea_enc.c **** 
 1273               		.loc 1 74 0
 1274 087a DF01      		movw r26,r30
 1275 087c A455      		subi r26,84
 1276 087e BF4F      		sbci r27,-1
 1277 0880 4D90      		ld r4,X+
 1278 0882 5D90      		ld r5,X+
 1279 0884 6D90      		ld r6,X+
 1280 0886 7C90      		ld r7,X
 1281 0888 1397      		sbiw r26,3
 1282 088a 4426      		eor r4,r20
 1283 088c 5526      		eor r5,r21
 1284 088e 6626      		eor r6,r22
 1285 0890 7726      		eor r7,r23
 1286 0892 1497      		sbiw r26,4
 1287 0894 8D91      		ld r24,X+
 1288 0896 9D91      		ld r25,X+
 1289 0898 0D90      		ld __tmp_reg__,X+
 1290 089a BC91      		ld r27,X
 1291 089c A02D      		mov r26,__tmp_reg__
 1292 089e 8C25      		eor r24,r12
 1293 08a0 9D25      		eor r25,r13
 1294 08a2 AE25      		eor r26,r14
 1295 08a4 BF25      		eor r27,r15
 1296 08a6 480E      		add r4,r24
 1297 08a8 591E      		adc r5,r25
 1298 08aa 6A1E      		adc r6,r26
 1299 08ac 7B1E      		adc r7,r27
 1300 08ae D301      		movw r26,r6
 1301 08b0 C201      		movw r24,r4
 1302 08b2 47E1      		ldi r20,23
 1303               		1:
 1304 08b4 B695      		lsr r27
 1305 08b6 A795      		ror r26
 1306 08b8 9795      		ror r25
 1307 08ba 8795      		ror r24
 1308 08bc 4A95      		dec r20
 1309 08be 01F4      		brne 1b
 1310               	.LVL37:
 1311 08c0 59E0      		ldi r21,9
 1312               		1:
 1313 08c2 440C      		lsl r4
 1314 08c4 551C      		rol r5
 1315 08c6 661C      		rol r6
 1316 08c8 771C      		rol r7
 1317 08ca 5A95      		dec r21
 1318 08cc 01F4      		brne 1b
 1319 08ce 482A      		or r4,r24
 1320 08d0 592A      		or r5,r25
 1321 08d2 6A2A      		or r6,r26
 1322 08d4 7B2A      		or r7,r27
 1323               	.LVL38:
  76:../crypto/avrcryptolib//lea/lea_enc.c **** 	X2 = ROR((X1 ^ key->rk[ 50]) + (X2 ^ key->rk[ 51]), 5);
 1324               		.loc 1 76 0
 1325 08d6 DF01      		movw r26,r30
 1326 08d8 A053      		subi r26,48
 1327 08da BF4F      		sbci r27,-1
 1328 08dc 4D91      		ld r20,X+
 1329 08de 5D91      		ld r21,X+
 1330 08e0 6D91      		ld r22,X+
 1331 08e2 7C91      		ld r23,X
 1332 08e4 1397      		sbiw r26,3
 1333 08e6 4825      		eor r20,r8
 1334 08e8 5925      		eor r21,r9
 1335 08ea 6A25      		eor r22,r10
 1336 08ec 7B25      		eor r23,r11
 1337 08ee 1496      		adiw r26,4
 1338 08f0 8D91      		ld r24,X+
 1339 08f2 9D91      		ld r25,X+
 1340 08f4 0D90      		ld __tmp_reg__,X+
 1341 08f6 BC91      		ld r27,X
 1342 08f8 A02D      		mov r26,__tmp_reg__
 1343 08fa 8C25      		eor r24,r12
 1344 08fc 9D25      		eor r25,r13
 1345 08fe AE25      		eor r26,r14
 1346 0900 BF25      		eor r27,r15
 1347 0902 480F      		add r20,r24
 1348 0904 591F      		adc r21,r25
 1349 0906 6A1F      		adc r22,r26
 1350 0908 7B1F      		adc r23,r27
 1351 090a DB01      		movw r26,r22
 1352 090c CA01      		movw r24,r20
 1353 090e 6894      		set
 1354 0910 12F8      		bld __zero_reg__,3-1
 1355               		1:
 1356 0912 B695      		lsr r27
 1357 0914 A795      		ror r26
 1358 0916 9795      		ror r25
 1359 0918 8795      		ror r24
 1360 091a 1694      		lsr __zero_reg__
 1361 091c 01F4      		brne 1b
 1362 091e 032E      		mov r0,r19
 1363 0920 3DE1      		ldi r19,29
 1364               		1:
 1365 0922 440F      		lsl r20
 1366 0924 551F      		rol r21
 1367 0926 661F      		rol r22
 1368 0928 771F      		rol r23
 1369 092a 3A95      		dec r19
 1370 092c 01F4      		brne 1b
 1371 092e 302D      		mov r19,r0
 1372 0930 482B      		or r20,r24
 1373 0932 592B      		or r21,r25
 1374 0934 6A2B      		or r22,r26
 1375 0936 7B2B      		or r23,r27
 1376               	.LVL39:
  77:../crypto/avrcryptolib//lea/lea_enc.c **** 	X1 = ROL((X0 ^ key->rk[ 48]) + (X1 ^ key->rk[ 49]), 9);
 1377               		.loc 1 77 0
 1378 0938 DF01      		movw r26,r30
 1379 093a A453      		subi r26,52
 1380 093c BF4F      		sbci r27,-1
 1381 093e CD90      		ld r12,X+
 1382 0940 DD90      		ld r13,X+
 1383 0942 ED90      		ld r14,X+
 1384 0944 FC90      		ld r15,X
 1385 0946 1397      		sbiw r26,3
 1386 0948 C824      		eor r12,r8
 1387 094a D924      		eor r13,r9
 1388 094c EA24      		eor r14,r10
 1389 094e FB24      		eor r15,r11
 1390 0950 1497      		sbiw r26,4
 1391 0952 8D91      		ld r24,X+
 1392 0954 9D91      		ld r25,X+
 1393 0956 0D90      		ld __tmp_reg__,X+
 1394 0958 BC91      		ld r27,X
 1395 095a A02D      		mov r26,__tmp_reg__
 1396 095c 8027      		eor r24,r16
 1397 095e 9127      		eor r25,r17
 1398 0960 A227      		eor r26,r18
 1399 0962 B327      		eor r27,r19
 1400 0964 C80E      		add r12,r24
 1401 0966 D91E      		adc r13,r25
 1402 0968 EA1E      		adc r14,r26
 1403 096a FB1E      		adc r15,r27
 1404 096c D701      		movw r26,r14
 1405 096e C601      		movw r24,r12
 1406 0970 6894      		set
 1407 0972 14F8      		bld __zero_reg__,5-1
 1408               		1:
 1409 0974 B695      		lsr r27
 1410 0976 A795      		ror r26
 1411 0978 9795      		ror r25
 1412 097a 8795      		ror r24
 1413 097c 1694      		lsr __zero_reg__
 1414 097e 01F4      		brne 1b
 1415 0980 0B2E      		mov r0,r27
 1416 0982 BBE1      		ldi r27,27
 1417               		1:
 1418 0984 CC0C      		lsl r12
 1419 0986 DD1C      		rol r13
 1420 0988 EE1C      		rol r14
 1421 098a FF1C      		rol r15
 1422 098c BA95      		dec r27
 1423 098e 01F4      		brne 1b
 1424 0990 B02D      		mov r27,r0
 1425 0992 C82A      		or r12,r24
 1426 0994 D92A      		or r13,r25
 1427 0996 EA2A      		or r14,r26
 1428 0998 FB2A      		or r15,r27
 1429               	.LVL40:
  78:../crypto/avrcryptolib//lea/lea_enc.c **** 	X0 = ROR((X3 ^ key->rk[ 58]) + (X0 ^ key->rk[ 59]), 3);
 1430               		.loc 1 78 0
 1431 099a DF01      		movw r26,r30
 1432 099c AC53      		subi r26,60
 1433 099e BF4F      		sbci r27,-1
 1434 09a0 8D90      		ld r8,X+
 1435 09a2 9D90      		ld r9,X+
 1436 09a4 AD90      		ld r10,X+
 1437 09a6 BC90      		ld r11,X
 1438 09a8 1397      		sbiw r26,3
 1439 09aa 8026      		eor r8,r16
 1440 09ac 9126      		eor r9,r17
 1441 09ae A226      		eor r10,r18
 1442 09b0 B326      		eor r11,r19
 1443 09b2 1497      		sbiw r26,4
 1444 09b4 8D91      		ld r24,X+
 1445 09b6 9D91      		ld r25,X+
 1446 09b8 0D90      		ld __tmp_reg__,X+
 1447 09ba BC91      		ld r27,X
 1448 09bc A02D      		mov r26,__tmp_reg__
 1449 09be 8425      		eor r24,r4
 1450 09c0 9525      		eor r25,r5
 1451 09c2 A625      		eor r26,r6
 1452 09c4 B725      		eor r27,r7
 1453 09c6 880E      		add r8,r24
 1454 09c8 991E      		adc r9,r25
 1455 09ca AA1E      		adc r10,r26
 1456 09cc BB1E      		adc r11,r27
 1457 09ce D501      		movw r26,r10
 1458 09d0 C401      		movw r24,r8
 1459 09d2 27E1      		ldi r18,23
 1460               		1:
 1461 09d4 B695      		lsr r27
 1462 09d6 A795      		ror r26
 1463 09d8 9795      		ror r25
 1464 09da 8795      		ror r24
 1465 09dc 2A95      		dec r18
 1466 09de 01F4      		brne 1b
 1467 09e0 39E0      		ldi r19,9
 1468               		1:
 1469 09e2 880C      		lsl r8
 1470 09e4 991C      		rol r9
 1471 09e6 AA1C      		rol r10
 1472 09e8 BB1C      		rol r11
 1473 09ea 3A95      		dec r19
 1474 09ec 01F4      		brne 1b
 1475 09ee 882A      		or r8,r24
 1476 09f0 992A      		or r9,r25
 1477 09f2 AA2A      		or r10,r26
 1478 09f4 BB2A      		or r11,r27
 1479               	.LVL41:
  79:../crypto/avrcryptolib//lea/lea_enc.c **** 	X3 = ROR((X2 ^ key->rk[ 56]) + (X3 ^ key->rk[ 57]), 5);
 1480               		.loc 1 79 0
 1481 09f6 DF01      		movw r26,r30
 1482 09f8 A851      		subi r26,24
 1483 09fa BF4F      		sbci r27,-1
 1484 09fc 0D91      		ld r16,X+
 1485 09fe 1D91      		ld r17,X+
 1486 0a00 2D91      		ld r18,X+
 1487 0a02 3C91      		ld r19,X
 1488 0a04 1397      		sbiw r26,3
 1489 0a06 0427      		eor r16,r20
 1490 0a08 1527      		eor r17,r21
 1491 0a0a 2627      		eor r18,r22
 1492 0a0c 3727      		eor r19,r23
 1493 0a0e 1496      		adiw r26,4
 1494 0a10 8D91      		ld r24,X+
 1495 0a12 9D91      		ld r25,X+
 1496 0a14 0D90      		ld __tmp_reg__,X+
 1497 0a16 BC91      		ld r27,X
 1498 0a18 A02D      		mov r26,__tmp_reg__
 1499 0a1a 8425      		eor r24,r4
 1500 0a1c 9525      		eor r25,r5
 1501 0a1e A625      		eor r26,r6
 1502 0a20 B725      		eor r27,r7
 1503 0a22 080F      		add r16,r24
 1504 0a24 191F      		adc r17,r25
 1505 0a26 2A1F      		adc r18,r26
 1506 0a28 3B1F      		adc r19,r27
 1507 0a2a D901      		movw r26,r18
 1508 0a2c C801      		movw r24,r16
 1509 0a2e 6894      		set
 1510 0a30 12F8      		bld __zero_reg__,3-1
 1511               		1:
 1512 0a32 B695      		lsr r27
 1513 0a34 A795      		ror r26
 1514 0a36 9795      		ror r25
 1515 0a38 8795      		ror r24
 1516 0a3a 1694      		lsr __zero_reg__
 1517 0a3c 01F4      		brne 1b
 1518 0a3e 0F2E      		mov r0,r31
 1519 0a40 FDE1      		ldi r31,29
 1520               		1:
 1521 0a42 000F      		lsl r16
 1522 0a44 111F      		rol r17
 1523 0a46 221F      		rol r18
 1524 0a48 331F      		rol r19
 1525 0a4a FA95      		dec r31
 1526 0a4c 01F4      		brne 1b
 1527 0a4e F02D      		mov r31,r0
 1528 0a50 082B      		or r16,r24
 1529 0a52 192B      		or r17,r25
 1530 0a54 2A2B      		or r18,r26
 1531 0a56 3B2B      		or r19,r27
 1532               	.LVL42:
  80:../crypto/avrcryptolib//lea/lea_enc.c **** 	X2 = ROL((X1 ^ key->rk[ 54]) + (X2 ^ key->rk[ 55]), 9);
 1533               		.loc 1 80 0
 1534 0a58 DF01      		movw r26,r30
 1535 0a5a AC51      		subi r26,28
 1536 0a5c BF4F      		sbci r27,-1
 1537 0a5e 4D90      		ld r4,X+
 1538 0a60 5D90      		ld r5,X+
 1539 0a62 6D90      		ld r6,X+
 1540 0a64 7C90      		ld r7,X
 1541 0a66 1397      		sbiw r26,3
 1542 0a68 4426      		eor r4,r20
 1543 0a6a 5526      		eor r5,r21
 1544 0a6c 6626      		eor r6,r22
 1545 0a6e 7726      		eor r7,r23
 1546 0a70 1497      		sbiw r26,4
 1547 0a72 8D91      		ld r24,X+
 1548 0a74 9D91      		ld r25,X+
 1549 0a76 0D90      		ld __tmp_reg__,X+
 1550 0a78 BC91      		ld r27,X
 1551 0a7a A02D      		mov r26,__tmp_reg__
 1552 0a7c 8C25      		eor r24,r12
 1553 0a7e 9D25      		eor r25,r13
 1554 0a80 AE25      		eor r26,r14
 1555 0a82 BF25      		eor r27,r15
 1556 0a84 480E      		add r4,r24
 1557 0a86 591E      		adc r5,r25
 1558 0a88 6A1E      		adc r6,r26
 1559 0a8a 7B1E      		adc r7,r27
 1560 0a8c D301      		movw r26,r6
 1561 0a8e C201      		movw r24,r4
 1562 0a90 45E0      		ldi r20,5
 1563               		1:
 1564 0a92 B695      		lsr r27
 1565 0a94 A795      		ror r26
 1566 0a96 9795      		ror r25
 1567 0a98 8795      		ror r24
 1568 0a9a 4A95      		dec r20
 1569 0a9c 01F4      		brne 1b
 1570               	.LVL43:
 1571 0a9e 5BE1      		ldi r21,27
 1572               		1:
 1573 0aa0 440C      		lsl r4
 1574 0aa2 551C      		rol r5
 1575 0aa4 661C      		rol r6
 1576 0aa6 771C      		rol r7
 1577 0aa8 5A95      		dec r21
 1578 0aaa 01F4      		brne 1b
 1579 0aac 482A      		or r4,r24
 1580 0aae 592A      		or r5,r25
 1581 0ab0 6A2A      		or r6,r26
 1582 0ab2 7B2A      		or r7,r27
 1583               	.LVL44:
  81:../crypto/avrcryptolib//lea/lea_enc.c **** 	X1 = ROR((X0 ^ key->rk[ 64]) + (X1 ^ key->rk[ 65]), 3);
 1584               		.loc 1 81 0
 1585 0ab4 DF01      		movw r26,r30
 1586 0ab6 A452      		subi r26,36
 1587 0ab8 BF4F      		sbci r27,-1
 1588 0aba 4D91      		ld r20,X+
 1589 0abc 5D91      		ld r21,X+
 1590 0abe 6D91      		ld r22,X+
 1591 0ac0 7C91      		ld r23,X
 1592 0ac2 1397      		sbiw r26,3
 1593 0ac4 4C25      		eor r20,r12
 1594 0ac6 5D25      		eor r21,r13
 1595 0ac8 6E25      		eor r22,r14
 1596 0aca 7F25      		eor r23,r15
 1597 0acc 1497      		sbiw r26,4
 1598 0ace 8D91      		ld r24,X+
 1599 0ad0 9D91      		ld r25,X+
 1600 0ad2 0D90      		ld __tmp_reg__,X+
 1601 0ad4 BC91      		ld r27,X
 1602 0ad6 A02D      		mov r26,__tmp_reg__
 1603 0ad8 8825      		eor r24,r8
 1604 0ada 9925      		eor r25,r9
 1605 0adc AA25      		eor r26,r10
 1606 0ade BB25      		eor r27,r11
 1607 0ae0 480F      		add r20,r24
 1608 0ae2 591F      		adc r21,r25
 1609 0ae4 6A1F      		adc r22,r26
 1610 0ae6 7B1F      		adc r23,r27
 1611 0ae8 DB01      		movw r26,r22
 1612 0aea CA01      		movw r24,r20
 1613 0aec 072E      		mov r0,r23
 1614 0aee 77E1      		ldi r23,23
 1615               		1:
 1616 0af0 B695      		lsr r27
 1617 0af2 A795      		ror r26
 1618 0af4 9795      		ror r25
 1619 0af6 8795      		ror r24
 1620 0af8 7A95      		dec r23
 1621 0afa 01F4      		brne 1b
 1622 0afc 702D      		mov r23,r0
 1623 0afe 032E      		mov r0,r19
 1624 0b00 39E0      		ldi r19,9
 1625               		1:
 1626 0b02 440F      		lsl r20
 1627 0b04 551F      		rol r21
 1628 0b06 661F      		rol r22
 1629 0b08 771F      		rol r23
 1630 0b0a 3A95      		dec r19
 1631 0b0c 01F4      		brne 1b
 1632 0b0e 302D      		mov r19,r0
 1633 0b10 482B      		or r20,r24
 1634 0b12 592B      		or r21,r25
 1635 0b14 6A2B      		or r22,r26
 1636 0b16 7B2B      		or r23,r27
 1637               	.LVL45:
  82:../crypto/avrcryptolib//lea/lea_enc.c **** 	X0 = ROR((X3 ^ key->rk[ 62]) + (X0 ^ key->rk[ 63]), 5);
 1638               		.loc 1 82 0
 1639 0b18 DF01      		movw r26,r30
 1640 0b1a B395      		inc r27
 1641 0b1c CD90      		ld r12,X+
 1642 0b1e DD90      		ld r13,X+
 1643 0b20 ED90      		ld r14,X+
 1644 0b22 FC90      		ld r15,X
 1645 0b24 1397      		sbiw r26,3
 1646 0b26 C026      		eor r12,r16
 1647 0b28 D126      		eor r13,r17
 1648 0b2a E226      		eor r14,r18
 1649 0b2c F326      		eor r15,r19
 1650 0b2e 1496      		adiw r26,4
 1651 0b30 8D91      		ld r24,X+
 1652 0b32 9D91      		ld r25,X+
 1653 0b34 0D90      		ld __tmp_reg__,X+
 1654 0b36 BC91      		ld r27,X
 1655 0b38 A02D      		mov r26,__tmp_reg__
 1656 0b3a 8825      		eor r24,r8
 1657 0b3c 9925      		eor r25,r9
 1658 0b3e AA25      		eor r26,r10
 1659 0b40 BB25      		eor r27,r11
 1660 0b42 C80E      		add r12,r24
 1661 0b44 D91E      		adc r13,r25
 1662 0b46 EA1E      		adc r14,r26
 1663 0b48 FB1E      		adc r15,r27
 1664 0b4a D701      		movw r26,r14
 1665 0b4c C601      		movw r24,r12
 1666 0b4e 6894      		set
 1667 0b50 12F8      		bld __zero_reg__,3-1
 1668               		1:
 1669 0b52 B695      		lsr r27
 1670 0b54 A795      		ror r26
 1671 0b56 9795      		ror r25
 1672 0b58 8795      		ror r24
 1673 0b5a 1694      		lsr __zero_reg__
 1674 0b5c 01F4      		brne 1b
 1675 0b5e 0B2E      		mov r0,r27
 1676 0b60 BDE1      		ldi r27,29
 1677               		1:
 1678 0b62 CC0C      		lsl r12
 1679 0b64 DD1C      		rol r13
 1680 0b66 EE1C      		rol r14
 1681 0b68 FF1C      		rol r15
 1682 0b6a BA95      		dec r27
 1683 0b6c 01F4      		brne 1b
 1684 0b6e B02D      		mov r27,r0
 1685 0b70 C82A      		or r12,r24
 1686 0b72 D92A      		or r13,r25
 1687 0b74 EA2A      		or r14,r26
 1688 0b76 FB2A      		or r15,r27
 1689               	.LVL46:
  83:../crypto/avrcryptolib//lea/lea_enc.c **** 	X3 = ROL((X2 ^ key->rk[ 60]) + (X3 ^ key->rk[ 61]), 9);
 1690               		.loc 1 83 0
 1691 0b78 DF01      		movw r26,r30
 1692 0b7a A450      		subi r26,4
 1693 0b7c BF4F      		sbci r27,-1
 1694 0b7e 8D90      		ld r8,X+
 1695 0b80 9D90      		ld r9,X+
 1696 0b82 AD90      		ld r10,X+
 1697 0b84 BC90      		ld r11,X
 1698 0b86 1397      		sbiw r26,3
 1699 0b88 8026      		eor r8,r16
 1700 0b8a 9126      		eor r9,r17
 1701 0b8c A226      		eor r10,r18
 1702 0b8e B326      		eor r11,r19
 1703 0b90 1497      		sbiw r26,4
 1704 0b92 8D91      		ld r24,X+
 1705 0b94 9D91      		ld r25,X+
 1706 0b96 0D90      		ld __tmp_reg__,X+
 1707 0b98 BC91      		ld r27,X
 1708 0b9a A02D      		mov r26,__tmp_reg__
 1709 0b9c 8425      		eor r24,r4
 1710 0b9e 9525      		eor r25,r5
 1711 0ba0 A625      		eor r26,r6
 1712 0ba2 B725      		eor r27,r7
 1713 0ba4 880E      		add r8,r24
 1714 0ba6 991E      		adc r9,r25
 1715 0ba8 AA1E      		adc r10,r26
 1716 0baa BB1E      		adc r11,r27
 1717 0bac D501      		movw r26,r10
 1718 0bae C401      		movw r24,r8
 1719 0bb0 25E0      		ldi r18,5
 1720               		1:
 1721 0bb2 B695      		lsr r27
 1722 0bb4 A795      		ror r26
 1723 0bb6 9795      		ror r25
 1724 0bb8 8795      		ror r24
 1725 0bba 2A95      		dec r18
 1726 0bbc 01F4      		brne 1b
 1727 0bbe 3BE1      		ldi r19,27
 1728               		1:
 1729 0bc0 880C      		lsl r8
 1730 0bc2 991C      		rol r9
 1731 0bc4 AA1C      		rol r10
 1732 0bc6 BB1C      		rol r11
 1733 0bc8 3A95      		dec r19
 1734 0bca 01F4      		brne 1b
 1735 0bcc 882A      		or r8,r24
 1736 0bce 992A      		or r9,r25
 1737 0bd0 AA2A      		or r10,r26
 1738 0bd2 BB2A      		or r11,r27
 1739               	.LVL47:
  84:../crypto/avrcryptolib//lea/lea_enc.c **** 	X2 = ROR((X1 ^ key->rk[ 70]) + (X2 ^ key->rk[ 71]), 3);
 1740               		.loc 1 84 0
 1741 0bd4 DF01      		movw r26,r30
 1742 0bd6 AC50      		subi r26,12
 1743 0bd8 BF4F      		sbci r27,-1
 1744 0bda 0D91      		ld r16,X+
 1745 0bdc 1D91      		ld r17,X+
 1746 0bde 2D91      		ld r18,X+
 1747 0be0 3C91      		ld r19,X
 1748 0be2 1397      		sbiw r26,3
 1749 0be4 0425      		eor r16,r4
 1750 0be6 1525      		eor r17,r5
 1751 0be8 2625      		eor r18,r6
 1752 0bea 3725      		eor r19,r7
 1753 0bec 1497      		sbiw r26,4
 1754 0bee 8D91      		ld r24,X+
 1755 0bf0 9D91      		ld r25,X+
 1756 0bf2 0D90      		ld __tmp_reg__,X+
 1757 0bf4 BC91      		ld r27,X
 1758 0bf6 A02D      		mov r26,__tmp_reg__
 1759 0bf8 8427      		eor r24,r20
 1760 0bfa 9527      		eor r25,r21
 1761 0bfc A627      		eor r26,r22
 1762 0bfe B727      		eor r27,r23
 1763 0c00 080F      		add r16,r24
 1764 0c02 191F      		adc r17,r25
 1765 0c04 2A1F      		adc r18,r26
 1766 0c06 3B1F      		adc r19,r27
 1767 0c08 D901      		movw r26,r18
 1768 0c0a C801      		movw r24,r16
 1769 0c0c 072E      		mov r0,r23
 1770 0c0e 77E1      		ldi r23,23
 1771               		1:
 1772 0c10 B695      		lsr r27
 1773 0c12 A795      		ror r26
 1774 0c14 9795      		ror r25
 1775 0c16 8795      		ror r24
 1776 0c18 7A95      		dec r23
 1777 0c1a 01F4      		brne 1b
 1778 0c1c 702D      		mov r23,r0
 1779 0c1e 0F2E      		mov r0,r31
 1780 0c20 F9E0      		ldi r31,9
 1781               		1:
 1782 0c22 000F      		lsl r16
 1783 0c24 111F      		rol r17
 1784 0c26 221F      		rol r18
 1785 0c28 331F      		rol r19
 1786 0c2a FA95      		dec r31
 1787 0c2c 01F4      		brne 1b
 1788 0c2e F02D      		mov r31,r0
 1789 0c30 082B      		or r16,r24
 1790 0c32 192B      		or r17,r25
 1791 0c34 2A2B      		or r18,r26
 1792 0c36 3B2B      		or r19,r27
 1793               	.LVL48:
  85:../crypto/avrcryptolib//lea/lea_enc.c **** 	X1 = ROR((X0 ^ key->rk[ 68]) + (X1 ^ key->rk[ 69]), 5);
 1794               		.loc 1 85 0
 1795 0c38 DF01      		movw r26,r30
 1796 0c3a A85E      		subi r26,-24
 1797 0c3c BE4F      		sbci r27,-2
 1798 0c3e 4D90      		ld r4,X+
 1799 0c40 5D90      		ld r5,X+
 1800 0c42 6D90      		ld r6,X+
 1801 0c44 7C90      		ld r7,X
 1802 0c46 1397      		sbiw r26,3
 1803 0c48 4C24      		eor r4,r12
 1804 0c4a 5D24      		eor r5,r13
 1805 0c4c 6E24      		eor r6,r14
 1806 0c4e 7F24      		eor r7,r15
 1807 0c50 1496      		adiw r26,4
 1808 0c52 8D91      		ld r24,X+
 1809 0c54 9D91      		ld r25,X+
 1810 0c56 0D90      		ld __tmp_reg__,X+
 1811 0c58 BC91      		ld r27,X
 1812 0c5a A02D      		mov r26,__tmp_reg__
 1813 0c5c 8427      		eor r24,r20
 1814 0c5e 9527      		eor r25,r21
 1815 0c60 A627      		eor r26,r22
 1816 0c62 B727      		eor r27,r23
 1817 0c64 480E      		add r4,r24
 1818 0c66 591E      		adc r5,r25
 1819 0c68 6A1E      		adc r6,r26
 1820 0c6a 7B1E      		adc r7,r27
 1821 0c6c D301      		movw r26,r6
 1822 0c6e C201      		movw r24,r4
 1823 0c70 43E0      		ldi r20,3
 1824               		1:
 1825 0c72 B695      		lsr r27
 1826 0c74 A795      		ror r26
 1827 0c76 9795      		ror r25
 1828 0c78 8795      		ror r24
 1829 0c7a 4A95      		dec r20
 1830 0c7c 01F4      		brne 1b
 1831               	.LVL49:
 1832 0c7e 5DE1      		ldi r21,29
 1833               		1:
 1834 0c80 440C      		lsl r4
 1835 0c82 551C      		rol r5
 1836 0c84 661C      		rol r6
 1837 0c86 771C      		rol r7
 1838 0c88 5A95      		dec r21
 1839 0c8a 01F4      		brne 1b
 1840 0c8c 482A      		or r4,r24
 1841 0c8e 592A      		or r5,r25
 1842 0c90 6A2A      		or r6,r26
 1843 0c92 7B2A      		or r7,r27
 1844               	.LVL50:
  86:../crypto/avrcryptolib//lea/lea_enc.c **** 	X0 = ROL((X3 ^ key->rk[ 66]) + (X0 ^ key->rk[ 67]), 9);
 1845               		.loc 1 86 0
 1846 0c94 DF01      		movw r26,r30
 1847 0c96 AC5E      		subi r26,-20
 1848 0c98 BE4F      		sbci r27,-2
 1849 0c9a 4D91      		ld r20,X+
 1850 0c9c 5D91      		ld r21,X+
 1851 0c9e 6D91      		ld r22,X+
 1852 0ca0 7C91      		ld r23,X
 1853 0ca2 1397      		sbiw r26,3
 1854 0ca4 4C25      		eor r20,r12
 1855 0ca6 5D25      		eor r21,r13
 1856 0ca8 6E25      		eor r22,r14
 1857 0caa 7F25      		eor r23,r15
 1858 0cac 1497      		sbiw r26,4
 1859 0cae 8D91      		ld r24,X+
 1860 0cb0 9D91      		ld r25,X+
 1861 0cb2 0D90      		ld __tmp_reg__,X+
 1862 0cb4 BC91      		ld r27,X
 1863 0cb6 A02D      		mov r26,__tmp_reg__
 1864 0cb8 8825      		eor r24,r8
 1865 0cba 9925      		eor r25,r9
 1866 0cbc AA25      		eor r26,r10
 1867 0cbe BB25      		eor r27,r11
 1868 0cc0 480F      		add r20,r24
 1869 0cc2 591F      		adc r21,r25
 1870 0cc4 6A1F      		adc r22,r26
 1871 0cc6 7B1F      		adc r23,r27
 1872 0cc8 DB01      		movw r26,r22
 1873 0cca CA01      		movw r24,r20
 1874 0ccc 6894      		set
 1875 0cce 14F8      		bld __zero_reg__,5-1
 1876               		1:
 1877 0cd0 B695      		lsr r27
 1878 0cd2 A795      		ror r26
 1879 0cd4 9795      		ror r25
 1880 0cd6 8795      		ror r24
 1881 0cd8 1694      		lsr __zero_reg__
 1882 0cda 01F4      		brne 1b
 1883 0cdc 032E      		mov r0,r19
 1884 0cde 3BE1      		ldi r19,27
 1885               		1:
 1886 0ce0 440F      		lsl r20
 1887 0ce2 551F      		rol r21
 1888 0ce4 661F      		rol r22
 1889 0ce6 771F      		rol r23
 1890 0ce8 3A95      		dec r19
 1891 0cea 01F4      		brne 1b
 1892 0cec 302D      		mov r19,r0
 1893 0cee 482B      		or r20,r24
 1894 0cf0 592B      		or r21,r25
 1895 0cf2 6A2B      		or r22,r26
 1896 0cf4 7B2B      		or r23,r27
 1897               	.LVL51:
  87:../crypto/avrcryptolib//lea/lea_enc.c **** 
 1898               		.loc 1 87 0
 1899 0cf6 DF01      		movw r26,r30
 1900 0cf8 A45F      		subi r26,-12
 1901 0cfa BE4F      		sbci r27,-2
 1902 0cfc CD90      		ld r12,X+
 1903 0cfe DD90      		ld r13,X+
 1904 0d00 ED90      		ld r14,X+
 1905 0d02 FC90      		ld r15,X
 1906 0d04 1397      		sbiw r26,3
 1907 0d06 C824      		eor r12,r8
 1908 0d08 D924      		eor r13,r9
 1909 0d0a EA24      		eor r14,r10
 1910 0d0c FB24      		eor r15,r11
 1911 0d0e 1497      		sbiw r26,4
 1912 0d10 8D91      		ld r24,X+
 1913 0d12 9D91      		ld r25,X+
 1914 0d14 0D90      		ld __tmp_reg__,X+
 1915 0d16 BC91      		ld r27,X
 1916 0d18 A02D      		mov r26,__tmp_reg__
 1917 0d1a 8027      		eor r24,r16
 1918 0d1c 9127      		eor r25,r17
 1919 0d1e A227      		eor r26,r18
 1920 0d20 B327      		eor r27,r19
 1921 0d22 C80E      		add r12,r24
 1922 0d24 D91E      		adc r13,r25
 1923 0d26 EA1E      		adc r14,r26
 1924 0d28 FB1E      		adc r15,r27
 1925 0d2a D701      		movw r26,r14
 1926 0d2c C601      		movw r24,r12
 1927 0d2e 072E      		mov r0,r23
 1928 0d30 77E1      		ldi r23,23
 1929               		1:
 1930 0d32 B695      		lsr r27
 1931 0d34 A795      		ror r26
 1932 0d36 9795      		ror r25
 1933 0d38 8795      		ror r24
 1934 0d3a 7A95      		dec r23
 1935 0d3c 01F4      		brne 1b
 1936 0d3e 702D      		mov r23,r0
 1937 0d40 0B2E      		mov r0,r27
 1938 0d42 B9E0      		ldi r27,9
 1939               		1:
 1940 0d44 CC0C      		lsl r12
 1941 0d46 DD1C      		rol r13
 1942 0d48 EE1C      		rol r14
 1943 0d4a FF1C      		rol r15
 1944 0d4c BA95      		dec r27
 1945 0d4e 01F4      		brne 1b
 1946 0d50 B02D      		mov r27,r0
 1947 0d52 C82A      		or r12,r24
 1948 0d54 D92A      		or r13,r25
 1949 0d56 EA2A      		or r14,r26
 1950 0d58 FB2A      		or r15,r27
 1951               	.LVL52:
  89:../crypto/avrcryptolib//lea/lea_enc.c **** 	X2 = ROR((X1 ^ key->rk[ 74]) + (X2 ^ key->rk[ 75]), 5);
 1952               		.loc 1 89 0
 1953 0d5a DF01      		movw r26,r30
 1954 0d5c A05D      		subi r26,-48
 1955 0d5e BE4F      		sbci r27,-2
 1956 0d60 8D90      		ld r8,X+
 1957 0d62 9D90      		ld r9,X+
 1958 0d64 AD90      		ld r10,X+
 1959 0d66 BC90      		ld r11,X
 1960 0d68 1397      		sbiw r26,3
 1961 0d6a 8424      		eor r8,r4
 1962 0d6c 9524      		eor r9,r5
 1963 0d6e A624      		eor r10,r6
 1964 0d70 B724      		eor r11,r7
 1965 0d72 1496      		adiw r26,4
 1966 0d74 8D91      		ld r24,X+
 1967 0d76 9D91      		ld r25,X+
 1968 0d78 0D90      		ld __tmp_reg__,X+
 1969 0d7a BC91      		ld r27,X
 1970 0d7c A02D      		mov r26,__tmp_reg__
 1971 0d7e 8027      		eor r24,r16
 1972 0d80 9127      		eor r25,r17
 1973 0d82 A227      		eor r26,r18
 1974 0d84 B327      		eor r27,r19
 1975 0d86 880E      		add r8,r24
 1976 0d88 991E      		adc r9,r25
 1977 0d8a AA1E      		adc r10,r26
 1978 0d8c BB1E      		adc r11,r27
 1979 0d8e D501      		movw r26,r10
 1980 0d90 C401      		movw r24,r8
 1981 0d92 23E0      		ldi r18,3
 1982               		1:
 1983 0d94 B695      		lsr r27
 1984 0d96 A795      		ror r26
 1985 0d98 9795      		ror r25
 1986 0d9a 8795      		ror r24
 1987 0d9c 2A95      		dec r18
 1988 0d9e 01F4      		brne 1b
 1989 0da0 3DE1      		ldi r19,29
 1990               		1:
 1991 0da2 880C      		lsl r8
 1992 0da4 991C      		rol r9
 1993 0da6 AA1C      		rol r10
 1994 0da8 BB1C      		rol r11
 1995 0daa 3A95      		dec r19
 1996 0dac 01F4      		brne 1b
 1997 0dae 882A      		or r8,r24
 1998 0db0 992A      		or r9,r25
 1999 0db2 AA2A      		or r10,r26
 2000 0db4 BB2A      		or r11,r27
 2001               	.LVL53:
  90:../crypto/avrcryptolib//lea/lea_enc.c **** 	X1 = ROL((X0 ^ key->rk[ 72]) + (X1 ^ key->rk[ 73]), 9);
 2002               		.loc 1 90 0
 2003 0db6 DF01      		movw r26,r30
 2004 0db8 A45D      		subi r26,-44
 2005 0dba BE4F      		sbci r27,-2
 2006 0dbc 0D91      		ld r16,X+
 2007 0dbe 1D91      		ld r17,X+
 2008 0dc0 2D91      		ld r18,X+
 2009 0dc2 3C91      		ld r19,X
 2010 0dc4 1397      		sbiw r26,3
 2011 0dc6 0425      		eor r16,r4
 2012 0dc8 1525      		eor r17,r5
 2013 0dca 2625      		eor r18,r6
 2014 0dcc 3725      		eor r19,r7
 2015 0dce 1497      		sbiw r26,4
 2016 0dd0 8D91      		ld r24,X+
 2017 0dd2 9D91      		ld r25,X+
 2018 0dd4 0D90      		ld __tmp_reg__,X+
 2019 0dd6 BC91      		ld r27,X
 2020 0dd8 A02D      		mov r26,__tmp_reg__
 2021 0dda 8427      		eor r24,r20
 2022 0ddc 9527      		eor r25,r21
 2023 0dde A627      		eor r26,r22
 2024 0de0 B727      		eor r27,r23
 2025 0de2 080F      		add r16,r24
 2026 0de4 191F      		adc r17,r25
 2027 0de6 2A1F      		adc r18,r26
 2028 0de8 3B1F      		adc r19,r27
 2029 0dea D901      		movw r26,r18
 2030 0dec C801      		movw r24,r16
 2031 0dee 6894      		set
 2032 0df0 14F8      		bld __zero_reg__,5-1
 2033               		1:
 2034 0df2 B695      		lsr r27
 2035 0df4 A795      		ror r26
 2036 0df6 9795      		ror r25
 2037 0df8 8795      		ror r24
 2038 0dfa 1694      		lsr __zero_reg__
 2039 0dfc 01F4      		brne 1b
 2040 0dfe 0F2E      		mov r0,r31
 2041 0e00 FBE1      		ldi r31,27
 2042               		1:
 2043 0e02 000F      		lsl r16
 2044 0e04 111F      		rol r17
 2045 0e06 221F      		rol r18
 2046 0e08 331F      		rol r19
 2047 0e0a FA95      		dec r31
 2048 0e0c 01F4      		brne 1b
 2049 0e0e F02D      		mov r31,r0
 2050 0e10 082B      		or r16,r24
 2051 0e12 192B      		or r17,r25
 2052 0e14 2A2B      		or r18,r26
 2053 0e16 3B2B      		or r19,r27
 2054               	.LVL54:
  91:../crypto/avrcryptolib//lea/lea_enc.c **** 	X0 = ROR((X3 ^ key->rk[ 82]) + (X0 ^ key->rk[ 83]), 3);
 2055               		.loc 1 91 0
 2056 0e18 DF01      		movw r26,r30
 2057 0e1a AC5D      		subi r26,-36
 2058 0e1c BE4F      		sbci r27,-2
 2059 0e1e 4D90      		ld r4,X+
 2060 0e20 5D90      		ld r5,X+
 2061 0e22 6D90      		ld r6,X+
 2062 0e24 7C90      		ld r7,X
 2063 0e26 1397      		sbiw r26,3
 2064 0e28 4426      		eor r4,r20
 2065 0e2a 5526      		eor r5,r21
 2066 0e2c 6626      		eor r6,r22
 2067 0e2e 7726      		eor r7,r23
 2068 0e30 1497      		sbiw r26,4
 2069 0e32 8D91      		ld r24,X+
 2070 0e34 9D91      		ld r25,X+
 2071 0e36 0D90      		ld __tmp_reg__,X+
 2072 0e38 BC91      		ld r27,X
 2073 0e3a A02D      		mov r26,__tmp_reg__
 2074 0e3c 8C25      		eor r24,r12
 2075 0e3e 9D25      		eor r25,r13
 2076 0e40 AE25      		eor r26,r14
 2077 0e42 BF25      		eor r27,r15
 2078 0e44 480E      		add r4,r24
 2079 0e46 591E      		adc r5,r25
 2080 0e48 6A1E      		adc r6,r26
 2081 0e4a 7B1E      		adc r7,r27
 2082 0e4c D301      		movw r26,r6
 2083 0e4e C201      		movw r24,r4
 2084 0e50 47E1      		ldi r20,23
 2085               		1:
 2086 0e52 B695      		lsr r27
 2087 0e54 A795      		ror r26
 2088 0e56 9795      		ror r25
 2089 0e58 8795      		ror r24
 2090 0e5a 4A95      		dec r20
 2091 0e5c 01F4      		brne 1b
 2092               	.LVL55:
 2093 0e5e 59E0      		ldi r21,9
 2094               		1:
 2095 0e60 440C      		lsl r4
 2096 0e62 551C      		rol r5
 2097 0e64 661C      		rol r6
 2098 0e66 771C      		rol r7
 2099 0e68 5A95      		dec r21
 2100 0e6a 01F4      		brne 1b
 2101 0e6c 482A      		or r4,r24
 2102 0e6e 592A      		or r5,r25
 2103 0e70 6A2A      		or r6,r26
 2104 0e72 7B2A      		or r7,r27
 2105               	.LVL56:
  92:../crypto/avrcryptolib//lea/lea_enc.c **** 	X3 = ROR((X2 ^ key->rk[ 80]) + (X3 ^ key->rk[ 81]), 5);
 2106               		.loc 1 92 0
 2107 0e74 DF01      		movw r26,r30
 2108 0e76 A85B      		subi r26,-72
 2109 0e78 BE4F      		sbci r27,-2
 2110 0e7a 4D91      		ld r20,X+
 2111 0e7c 5D91      		ld r21,X+
 2112 0e7e 6D91      		ld r22,X+
 2113 0e80 7C91      		ld r23,X
 2114 0e82 1397      		sbiw r26,3
 2115 0e84 4825      		eor r20,r8
 2116 0e86 5925      		eor r21,r9
 2117 0e88 6A25      		eor r22,r10
 2118 0e8a 7B25      		eor r23,r11
 2119 0e8c 1496      		adiw r26,4
 2120 0e8e 8D91      		ld r24,X+
 2121 0e90 9D91      		ld r25,X+
 2122 0e92 0D90      		ld __tmp_reg__,X+
 2123 0e94 BC91      		ld r27,X
 2124 0e96 A02D      		mov r26,__tmp_reg__
 2125 0e98 8C25      		eor r24,r12
 2126 0e9a 9D25      		eor r25,r13
 2127 0e9c AE25      		eor r26,r14
 2128 0e9e BF25      		eor r27,r15
 2129 0ea0 480F      		add r20,r24
 2130 0ea2 591F      		adc r21,r25
 2131 0ea4 6A1F      		adc r22,r26
 2132 0ea6 7B1F      		adc r23,r27
 2133 0ea8 DB01      		movw r26,r22
 2134 0eaa CA01      		movw r24,r20
 2135 0eac 6894      		set
 2136 0eae 12F8      		bld __zero_reg__,3-1
 2137               		1:
 2138 0eb0 B695      		lsr r27
 2139 0eb2 A795      		ror r26
 2140 0eb4 9795      		ror r25
 2141 0eb6 8795      		ror r24
 2142 0eb8 1694      		lsr __zero_reg__
 2143 0eba 01F4      		brne 1b
 2144 0ebc 032E      		mov r0,r19
 2145 0ebe 3DE1      		ldi r19,29
 2146               		1:
 2147 0ec0 440F      		lsl r20
 2148 0ec2 551F      		rol r21
 2149 0ec4 661F      		rol r22
 2150 0ec6 771F      		rol r23
 2151 0ec8 3A95      		dec r19
 2152 0eca 01F4      		brne 1b
 2153 0ecc 302D      		mov r19,r0
 2154 0ece 482B      		or r20,r24
 2155 0ed0 592B      		or r21,r25
 2156 0ed2 6A2B      		or r22,r26
 2157 0ed4 7B2B      		or r23,r27
 2158               	.LVL57:
  93:../crypto/avrcryptolib//lea/lea_enc.c **** 	X2 = ROL((X1 ^ key->rk[ 78]) + (X2 ^ key->rk[ 79]), 9);
 2159               		.loc 1 93 0
 2160 0ed6 DF01      		movw r26,r30
 2161 0ed8 AC5B      		subi r26,-68
 2162 0eda BE4F      		sbci r27,-2
 2163 0edc CD90      		ld r12,X+
 2164 0ede DD90      		ld r13,X+
 2165 0ee0 ED90      		ld r14,X+
 2166 0ee2 FC90      		ld r15,X
 2167 0ee4 1397      		sbiw r26,3
 2168 0ee6 C824      		eor r12,r8
 2169 0ee8 D924      		eor r13,r9
 2170 0eea EA24      		eor r14,r10
 2171 0eec FB24      		eor r15,r11
 2172 0eee 1497      		sbiw r26,4
 2173 0ef0 8D91      		ld r24,X+
 2174 0ef2 9D91      		ld r25,X+
 2175 0ef4 0D90      		ld __tmp_reg__,X+
 2176 0ef6 BC91      		ld r27,X
 2177 0ef8 A02D      		mov r26,__tmp_reg__
 2178 0efa 8027      		eor r24,r16
 2179 0efc 9127      		eor r25,r17
 2180 0efe A227      		eor r26,r18
 2181 0f00 B327      		eor r27,r19
 2182 0f02 C80E      		add r12,r24
 2183 0f04 D91E      		adc r13,r25
 2184 0f06 EA1E      		adc r14,r26
 2185 0f08 FB1E      		adc r15,r27
 2186 0f0a D701      		movw r26,r14
 2187 0f0c C601      		movw r24,r12
 2188 0f0e 6894      		set
 2189 0f10 14F8      		bld __zero_reg__,5-1
 2190               		1:
 2191 0f12 B695      		lsr r27
 2192 0f14 A795      		ror r26
 2193 0f16 9795      		ror r25
 2194 0f18 8795      		ror r24
 2195 0f1a 1694      		lsr __zero_reg__
 2196 0f1c 01F4      		brne 1b
 2197 0f1e 0B2E      		mov r0,r27
 2198 0f20 BBE1      		ldi r27,27
 2199               		1:
 2200 0f22 CC0C      		lsl r12
 2201 0f24 DD1C      		rol r13
 2202 0f26 EE1C      		rol r14
 2203 0f28 FF1C      		rol r15
 2204 0f2a BA95      		dec r27
 2205 0f2c 01F4      		brne 1b
 2206 0f2e B02D      		mov r27,r0
 2207 0f30 C82A      		or r12,r24
 2208 0f32 D92A      		or r13,r25
 2209 0f34 EA2A      		or r14,r26
 2210 0f36 FB2A      		or r15,r27
 2211               	.LVL58:
  94:../crypto/avrcryptolib//lea/lea_enc.c **** 	X1 = ROR((X0 ^ key->rk[ 88]) + (X1 ^ key->rk[ 89]), 3);
 2212               		.loc 1 94 0
 2213 0f38 DF01      		movw r26,r30
 2214 0f3a A45C      		subi r26,-60
 2215 0f3c BE4F      		sbci r27,-2
 2216 0f3e 8D90      		ld r8,X+
 2217 0f40 9D90      		ld r9,X+
 2218 0f42 AD90      		ld r10,X+
 2219 0f44 BC90      		ld r11,X
 2220 0f46 1397      		sbiw r26,3
 2221 0f48 8026      		eor r8,r16
 2222 0f4a 9126      		eor r9,r17
 2223 0f4c A226      		eor r10,r18
 2224 0f4e B326      		eor r11,r19
 2225 0f50 1497      		sbiw r26,4
 2226 0f52 8D91      		ld r24,X+
 2227 0f54 9D91      		ld r25,X+
 2228 0f56 0D90      		ld __tmp_reg__,X+
 2229 0f58 BC91      		ld r27,X
 2230 0f5a A02D      		mov r26,__tmp_reg__
 2231 0f5c 8425      		eor r24,r4
 2232 0f5e 9525      		eor r25,r5
 2233 0f60 A625      		eor r26,r6
 2234 0f62 B725      		eor r27,r7
 2235 0f64 880E      		add r8,r24
 2236 0f66 991E      		adc r9,r25
 2237 0f68 AA1E      		adc r10,r26
 2238 0f6a BB1E      		adc r11,r27
 2239 0f6c D501      		movw r26,r10
 2240 0f6e C401      		movw r24,r8
 2241 0f70 27E1      		ldi r18,23
 2242               		1:
 2243 0f72 B695      		lsr r27
 2244 0f74 A795      		ror r26
 2245 0f76 9795      		ror r25
 2246 0f78 8795      		ror r24
 2247 0f7a 2A95      		dec r18
 2248 0f7c 01F4      		brne 1b
 2249 0f7e 39E0      		ldi r19,9
 2250               		1:
 2251 0f80 880C      		lsl r8
 2252 0f82 991C      		rol r9
 2253 0f84 AA1C      		rol r10
 2254 0f86 BB1C      		rol r11
 2255 0f88 3A95      		dec r19
 2256 0f8a 01F4      		brne 1b
 2257 0f8c 882A      		or r8,r24
 2258 0f8e 992A      		or r9,r25
 2259 0f90 AA2A      		or r10,r26
 2260 0f92 BB2A      		or r11,r27
 2261               	.LVL59:
  95:../crypto/avrcryptolib//lea/lea_enc.c **** 	X0 = ROR((X3 ^ key->rk[ 86]) + (X0 ^ key->rk[ 87]), 5);
 2262               		.loc 1 95 0
 2263 0f94 DF01      		movw r26,r30
 2264 0f96 A05A      		subi r26,-96
 2265 0f98 BE4F      		sbci r27,-2
 2266 0f9a 0D91      		ld r16,X+
 2267 0f9c 1D91      		ld r17,X+
 2268 0f9e 2D91      		ld r18,X+
 2269 0fa0 3C91      		ld r19,X
 2270 0fa2 1397      		sbiw r26,3
 2271 0fa4 0427      		eor r16,r20
 2272 0fa6 1527      		eor r17,r21
 2273 0fa8 2627      		eor r18,r22
 2274 0faa 3727      		eor r19,r23
 2275 0fac 1496      		adiw r26,4
 2276 0fae 8D91      		ld r24,X+
 2277 0fb0 9D91      		ld r25,X+
 2278 0fb2 0D90      		ld __tmp_reg__,X+
 2279 0fb4 BC91      		ld r27,X
 2280 0fb6 A02D      		mov r26,__tmp_reg__
 2281 0fb8 8425      		eor r24,r4
 2282 0fba 9525      		eor r25,r5
 2283 0fbc A625      		eor r26,r6
 2284 0fbe B725      		eor r27,r7
 2285 0fc0 080F      		add r16,r24
 2286 0fc2 191F      		adc r17,r25
 2287 0fc4 2A1F      		adc r18,r26
 2288 0fc6 3B1F      		adc r19,r27
 2289 0fc8 D901      		movw r26,r18
 2290 0fca C801      		movw r24,r16
 2291 0fcc 6894      		set
 2292 0fce 12F8      		bld __zero_reg__,3-1
 2293               		1:
 2294 0fd0 B695      		lsr r27
 2295 0fd2 A795      		ror r26
 2296 0fd4 9795      		ror r25
 2297 0fd6 8795      		ror r24
 2298 0fd8 1694      		lsr __zero_reg__
 2299 0fda 01F4      		brne 1b
 2300 0fdc 0F2E      		mov r0,r31
 2301 0fde FDE1      		ldi r31,29
 2302               		1:
 2303 0fe0 000F      		lsl r16
 2304 0fe2 111F      		rol r17
 2305 0fe4 221F      		rol r18
 2306 0fe6 331F      		rol r19
 2307 0fe8 FA95      		dec r31
 2308 0fea 01F4      		brne 1b
 2309 0fec F02D      		mov r31,r0
 2310 0fee 082B      		or r16,r24
 2311 0ff0 192B      		or r17,r25
 2312 0ff2 2A2B      		or r18,r26
 2313 0ff4 3B2B      		or r19,r27
 2314               	.LVL60:
  96:../crypto/avrcryptolib//lea/lea_enc.c **** 	X3 = ROL((X2 ^ key->rk[ 84]) + (X3 ^ key->rk[ 85]), 9);
 2315               		.loc 1 96 0
 2316 0ff6 DF01      		movw r26,r30
 2317 0ff8 A45A      		subi r26,-92
 2318 0ffa BE4F      		sbci r27,-2
 2319 0ffc 4D90      		ld r4,X+
 2320 0ffe 5D90      		ld r5,X+
 2321 1000 6D90      		ld r6,X+
 2322 1002 7C90      		ld r7,X
 2323 1004 1397      		sbiw r26,3
 2324 1006 4426      		eor r4,r20
 2325 1008 5526      		eor r5,r21
 2326 100a 6626      		eor r6,r22
 2327 100c 7726      		eor r7,r23
 2328 100e 1497      		sbiw r26,4
 2329 1010 8D91      		ld r24,X+
 2330 1012 9D91      		ld r25,X+
 2331 1014 0D90      		ld __tmp_reg__,X+
 2332 1016 BC91      		ld r27,X
 2333 1018 A02D      		mov r26,__tmp_reg__
 2334 101a 8C25      		eor r24,r12
 2335 101c 9D25      		eor r25,r13
 2336 101e AE25      		eor r26,r14
 2337 1020 BF25      		eor r27,r15
 2338 1022 480E      		add r4,r24
 2339 1024 591E      		adc r5,r25
 2340 1026 6A1E      		adc r6,r26
 2341 1028 7B1E      		adc r7,r27
 2342 102a D301      		movw r26,r6
 2343 102c C201      		movw r24,r4
 2344 102e 45E0      		ldi r20,5
 2345               		1:
 2346 1030 B695      		lsr r27
 2347 1032 A795      		ror r26
 2348 1034 9795      		ror r25
 2349 1036 8795      		ror r24
 2350 1038 4A95      		dec r20
 2351 103a 01F4      		brne 1b
 2352               	.LVL61:
 2353 103c 5BE1      		ldi r21,27
 2354               		1:
 2355 103e 440C      		lsl r4
 2356 1040 551C      		rol r5
 2357 1042 661C      		rol r6
 2358 1044 771C      		rol r7
 2359 1046 5A95      		dec r21
 2360 1048 01F4      		brne 1b
 2361 104a 482A      		or r4,r24
 2362 104c 592A      		or r5,r25
 2363 104e 6A2A      		or r6,r26
 2364 1050 7B2A      		or r7,r27
 2365               	.LVL62:
  97:../crypto/avrcryptolib//lea/lea_enc.c **** 	X2 = ROR((X1 ^ key->rk[ 94]) + (X2 ^ key->rk[ 95]), 3);
 2366               		.loc 1 97 0
 2367 1052 DF01      		movw r26,r30
 2368 1054 AC5A      		subi r26,-84
 2369 1056 BE4F      		sbci r27,-2
 2370 1058 4D91      		ld r20,X+
 2371 105a 5D91      		ld r21,X+
 2372 105c 6D91      		ld r22,X+
 2373 105e 7C91      		ld r23,X
 2374 1060 1397      		sbiw r26,3
 2375 1062 4C25      		eor r20,r12
 2376 1064 5D25      		eor r21,r13
 2377 1066 6E25      		eor r22,r14
 2378 1068 7F25      		eor r23,r15
 2379 106a 1497      		sbiw r26,4
 2380 106c 8D91      		ld r24,X+
 2381 106e 9D91      		ld r25,X+
 2382 1070 0D90      		ld __tmp_reg__,X+
 2383 1072 BC91      		ld r27,X
 2384 1074 A02D      		mov r26,__tmp_reg__
 2385 1076 8825      		eor r24,r8
 2386 1078 9925      		eor r25,r9
 2387 107a AA25      		eor r26,r10
 2388 107c BB25      		eor r27,r11
 2389 107e 480F      		add r20,r24
 2390 1080 591F      		adc r21,r25
 2391 1082 6A1F      		adc r22,r26
 2392 1084 7B1F      		adc r23,r27
 2393 1086 DB01      		movw r26,r22
 2394 1088 CA01      		movw r24,r20
 2395 108a 072E      		mov r0,r23
 2396 108c 77E1      		ldi r23,23
 2397               		1:
 2398 108e B695      		lsr r27
 2399 1090 A795      		ror r26
 2400 1092 9795      		ror r25
 2401 1094 8795      		ror r24
 2402 1096 7A95      		dec r23
 2403 1098 01F4      		brne 1b
 2404 109a 702D      		mov r23,r0
 2405 109c 032E      		mov r0,r19
 2406 109e 39E0      		ldi r19,9
 2407               		1:
 2408 10a0 440F      		lsl r20
 2409 10a2 551F      		rol r21
 2410 10a4 661F      		rol r22
 2411 10a6 771F      		rol r23
 2412 10a8 3A95      		dec r19
 2413 10aa 01F4      		brne 1b
 2414 10ac 302D      		mov r19,r0
 2415 10ae 482B      		or r20,r24
 2416 10b0 592B      		or r21,r25
 2417 10b2 6A2B      		or r22,r26
 2418 10b4 7B2B      		or r23,r27
 2419               	.LVL63:
  98:../crypto/avrcryptolib//lea/lea_enc.c **** 	X1 = ROR((X0 ^ key->rk[ 92]) + (X1 ^ key->rk[ 93]), 5);
 2420               		.loc 1 98 0
 2421 10b6 DF01      		movw r26,r30
 2422 10b8 A858      		subi r26,-120
 2423 10ba BE4F      		sbci r27,-2
 2424 10bc CD90      		ld r12,X+
 2425 10be DD90      		ld r13,X+
 2426 10c0 ED90      		ld r14,X+
 2427 10c2 FC90      		ld r15,X
 2428 10c4 1397      		sbiw r26,3
 2429 10c6 C026      		eor r12,r16
 2430 10c8 D126      		eor r13,r17
 2431 10ca E226      		eor r14,r18
 2432 10cc F326      		eor r15,r19
 2433 10ce 1496      		adiw r26,4
 2434 10d0 8D91      		ld r24,X+
 2435 10d2 9D91      		ld r25,X+
 2436 10d4 0D90      		ld __tmp_reg__,X+
 2437 10d6 BC91      		ld r27,X
 2438 10d8 A02D      		mov r26,__tmp_reg__
 2439 10da 8825      		eor r24,r8
 2440 10dc 9925      		eor r25,r9
 2441 10de AA25      		eor r26,r10
 2442 10e0 BB25      		eor r27,r11
 2443 10e2 C80E      		add r12,r24
 2444 10e4 D91E      		adc r13,r25
 2445 10e6 EA1E      		adc r14,r26
 2446 10e8 FB1E      		adc r15,r27
 2447 10ea D701      		movw r26,r14
 2448 10ec C601      		movw r24,r12
 2449 10ee 6894      		set
 2450 10f0 12F8      		bld __zero_reg__,3-1
 2451               		1:
 2452 10f2 B695      		lsr r27
 2453 10f4 A795      		ror r26
 2454 10f6 9795      		ror r25
 2455 10f8 8795      		ror r24
 2456 10fa 1694      		lsr __zero_reg__
 2457 10fc 01F4      		brne 1b
 2458 10fe 0B2E      		mov r0,r27
 2459 1100 BDE1      		ldi r27,29
 2460               		1:
 2461 1102 CC0C      		lsl r12
 2462 1104 DD1C      		rol r13
 2463 1106 EE1C      		rol r14
 2464 1108 FF1C      		rol r15
 2465 110a BA95      		dec r27
 2466 110c 01F4      		brne 1b
 2467 110e B02D      		mov r27,r0
 2468 1110 C82A      		or r12,r24
 2469 1112 D92A      		or r13,r25
 2470 1114 EA2A      		or r14,r26
 2471 1116 FB2A      		or r15,r27
 2472               	.LVL64:
  99:../crypto/avrcryptolib//lea/lea_enc.c **** 	X0 = ROL((X3 ^ key->rk[ 90]) + (X0 ^ key->rk[ 91]), 9);
 2473               		.loc 1 99 0
 2474 1118 DF01      		movw r26,r30
 2475 111a AC58      		subi r26,-116
 2476 111c BE4F      		sbci r27,-2
 2477 111e 8D90      		ld r8,X+
 2478 1120 9D90      		ld r9,X+
 2479 1122 AD90      		ld r10,X+
 2480 1124 BC90      		ld r11,X
 2481 1126 1397      		sbiw r26,3
 2482 1128 8026      		eor r8,r16
 2483 112a 9126      		eor r9,r17
 2484 112c A226      		eor r10,r18
 2485 112e B326      		eor r11,r19
 2486 1130 1497      		sbiw r26,4
 2487 1132 8D91      		ld r24,X+
 2488 1134 9D91      		ld r25,X+
 2489 1136 0D90      		ld __tmp_reg__,X+
 2490 1138 BC91      		ld r27,X
 2491 113a A02D      		mov r26,__tmp_reg__
 2492 113c 8425      		eor r24,r4
 2493 113e 9525      		eor r25,r5
 2494 1140 A625      		eor r26,r6
 2495 1142 B725      		eor r27,r7
 2496 1144 880E      		add r8,r24
 2497 1146 991E      		adc r9,r25
 2498 1148 AA1E      		adc r10,r26
 2499 114a BB1E      		adc r11,r27
 2500 114c D501      		movw r26,r10
 2501 114e C401      		movw r24,r8
 2502 1150 25E0      		ldi r18,5
 2503               		1:
 2504 1152 B695      		lsr r27
 2505 1154 A795      		ror r26
 2506 1156 9795      		ror r25
 2507 1158 8795      		ror r24
 2508 115a 2A95      		dec r18
 2509 115c 01F4      		brne 1b
 2510 115e 3BE1      		ldi r19,27
 2511               		1:
 2512 1160 880C      		lsl r8
 2513 1162 991C      		rol r9
 2514 1164 AA1C      		rol r10
 2515 1166 BB1C      		rol r11
 2516 1168 3A95      		dec r19
 2517 116a 01F4      		brne 1b
 2518 116c 882A      		or r8,r24
 2519 116e 992A      		or r9,r25
 2520 1170 AA2A      		or r10,r26
 2521 1172 BB2A      		or r11,r27
 2522               	.LVL65:
 100:../crypto/avrcryptolib//lea/lea_enc.c **** 
 2523               		.loc 1 100 0
 2524 1174 DF01      		movw r26,r30
 2525 1176 A459      		subi r26,-108
 2526 1178 BE4F      		sbci r27,-2
 2527 117a 0D91      		ld r16,X+
 2528 117c 1D91      		ld r17,X+
 2529 117e 2D91      		ld r18,X+
 2530 1180 3C91      		ld r19,X
 2531 1182 1397      		sbiw r26,3
 2532 1184 0425      		eor r16,r4
 2533 1186 1525      		eor r17,r5
 2534 1188 2625      		eor r18,r6
 2535 118a 3725      		eor r19,r7
 2536 118c 1497      		sbiw r26,4
 2537 118e 8D91      		ld r24,X+
 2538 1190 9D91      		ld r25,X+
 2539 1192 0D90      		ld __tmp_reg__,X+
 2540 1194 BC91      		ld r27,X
 2541 1196 A02D      		mov r26,__tmp_reg__
 2542 1198 8427      		eor r24,r20
 2543 119a 9527      		eor r25,r21
 2544 119c A627      		eor r26,r22
 2545 119e B727      		eor r27,r23
 2546 11a0 080F      		add r16,r24
 2547 11a2 191F      		adc r17,r25
 2548 11a4 2A1F      		adc r18,r26
 2549 11a6 3B1F      		adc r19,r27
 2550 11a8 D901      		movw r26,r18
 2551 11aa C801      		movw r24,r16
 2552 11ac 072E      		mov r0,r23
 2553 11ae 77E1      		ldi r23,23
 2554               		1:
 2555 11b0 B695      		lsr r27
 2556 11b2 A795      		ror r26
 2557 11b4 9795      		ror r25
 2558 11b6 8795      		ror r24
 2559 11b8 7A95      		dec r23
 2560 11ba 01F4      		brne 1b
 2561 11bc 702D      		mov r23,r0
 2562 11be 0F2E      		mov r0,r31
 2563 11c0 F9E0      		ldi r31,9
 2564               		1:
 2565 11c2 000F      		lsl r16
 2566 11c4 111F      		rol r17
 2567 11c6 221F      		rol r18
 2568 11c8 331F      		rol r19
 2569 11ca FA95      		dec r31
 2570 11cc 01F4      		brne 1b
 2571 11ce F02D      		mov r31,r0
 2572 11d0 082B      		or r16,r24
 2573 11d2 192B      		or r17,r25
 2574 11d4 2A2B      		or r18,r26
 2575 11d6 3B2B      		or r19,r27
 2576               	.LVL66:
 102:../crypto/avrcryptolib//lea/lea_enc.c **** 	X2 = ROR((X1 ^ key->rk[ 98]) + (X2 ^ key->rk[ 99]), 5);
 2577               		.loc 1 102 0
 2578 11d8 DF01      		movw r26,r30
 2579 11da A057      		subi r26,112
 2580 11dc BE4F      		sbci r27,-2
 2581 11de 4D90      		ld r4,X+
 2582 11e0 5D90      		ld r5,X+
 2583 11e2 6D90      		ld r6,X+
 2584 11e4 7C90      		ld r7,X
 2585 11e6 1397      		sbiw r26,3
 2586 11e8 4C24      		eor r4,r12
 2587 11ea 5D24      		eor r5,r13
 2588 11ec 6E24      		eor r6,r14
 2589 11ee 7F24      		eor r7,r15
 2590 11f0 1496      		adiw r26,4
 2591 11f2 8D91      		ld r24,X+
 2592 11f4 9D91      		ld r25,X+
 2593 11f6 0D90      		ld __tmp_reg__,X+
 2594 11f8 BC91      		ld r27,X
 2595 11fa A02D      		mov r26,__tmp_reg__
 2596 11fc 8427      		eor r24,r20
 2597 11fe 9527      		eor r25,r21
 2598 1200 A627      		eor r26,r22
 2599 1202 B727      		eor r27,r23
 2600 1204 480E      		add r4,r24
 2601 1206 591E      		adc r5,r25
 2602 1208 6A1E      		adc r6,r26
 2603 120a 7B1E      		adc r7,r27
 2604 120c D301      		movw r26,r6
 2605 120e C201      		movw r24,r4
 2606 1210 43E0      		ldi r20,3
 2607               		1:
 2608 1212 B695      		lsr r27
 2609 1214 A795      		ror r26
 2610 1216 9795      		ror r25
 2611 1218 8795      		ror r24
 2612 121a 4A95      		dec r20
 2613 121c 01F4      		brne 1b
 2614               	.LVL67:
 2615 121e 5DE1      		ldi r21,29
 2616               		1:
 2617 1220 440C      		lsl r4
 2618 1222 551C      		rol r5
 2619 1224 661C      		rol r6
 2620 1226 771C      		rol r7
 2621 1228 5A95      		dec r21
 2622 122a 01F4      		brne 1b
 2623 122c 482A      		or r4,r24
 2624 122e 592A      		or r5,r25
 2625 1230 6A2A      		or r6,r26
 2626 1232 7B2A      		or r7,r27
 2627               	.LVL68:
 103:../crypto/avrcryptolib//lea/lea_enc.c **** 	X1 = ROL((X0 ^ key->rk[ 96]) + (X1 ^ key->rk[ 97]), 9);
 2628               		.loc 1 103 0
 2629 1234 DF01      		movw r26,r30
 2630 1236 A457      		subi r26,116
 2631 1238 BE4F      		sbci r27,-2
 2632 123a 4D91      		ld r20,X+
 2633 123c 5D91      		ld r21,X+
 2634 123e 6D91      		ld r22,X+
 2635 1240 7C91      		ld r23,X
 2636 1242 1397      		sbiw r26,3
 2637 1244 4C25      		eor r20,r12
 2638 1246 5D25      		eor r21,r13
 2639 1248 6E25      		eor r22,r14
 2640 124a 7F25      		eor r23,r15
 2641 124c 1497      		sbiw r26,4
 2642 124e 8D91      		ld r24,X+
 2643 1250 9D91      		ld r25,X+
 2644 1252 0D90      		ld __tmp_reg__,X+
 2645 1254 BC91      		ld r27,X
 2646 1256 A02D      		mov r26,__tmp_reg__
 2647 1258 8825      		eor r24,r8
 2648 125a 9925      		eor r25,r9
 2649 125c AA25      		eor r26,r10
 2650 125e BB25      		eor r27,r11
 2651 1260 480F      		add r20,r24
 2652 1262 591F      		adc r21,r25
 2653 1264 6A1F      		adc r22,r26
 2654 1266 7B1F      		adc r23,r27
 2655 1268 DB01      		movw r26,r22
 2656 126a CA01      		movw r24,r20
 2657 126c 6894      		set
 2658 126e 14F8      		bld __zero_reg__,5-1
 2659               		1:
 2660 1270 B695      		lsr r27
 2661 1272 A795      		ror r26
 2662 1274 9795      		ror r25
 2663 1276 8795      		ror r24
 2664 1278 1694      		lsr __zero_reg__
 2665 127a 01F4      		brne 1b
 2666 127c 032E      		mov r0,r19
 2667 127e 3BE1      		ldi r19,27
 2668               		1:
 2669 1280 440F      		lsl r20
 2670 1282 551F      		rol r21
 2671 1284 661F      		rol r22
 2672 1286 771F      		rol r23
 2673 1288 3A95      		dec r19
 2674 128a 01F4      		brne 1b
 2675 128c 302D      		mov r19,r0
 2676 128e 482B      		or r20,r24
 2677 1290 592B      		or r21,r25
 2678 1292 6A2B      		or r22,r26
 2679 1294 7B2B      		or r23,r27
 2680               	.LVL69:
 104:../crypto/avrcryptolib//lea/lea_enc.c **** 	X0 = ROR((X3 ^ key->rk[106]) + (X0 ^ key->rk[107]), 3);
 2681               		.loc 1 104 0
 2682 1296 DF01      		movw r26,r30
 2683 1298 AC57      		subi r26,124
 2684 129a BE4F      		sbci r27,-2
 2685 129c CD90      		ld r12,X+
 2686 129e DD90      		ld r13,X+
 2687 12a0 ED90      		ld r14,X+
 2688 12a2 FC90      		ld r15,X
 2689 12a4 1397      		sbiw r26,3
 2690 12a6 C824      		eor r12,r8
 2691 12a8 D924      		eor r13,r9
 2692 12aa EA24      		eor r14,r10
 2693 12ac FB24      		eor r15,r11
 2694 12ae 1497      		sbiw r26,4
 2695 12b0 8D91      		ld r24,X+
 2696 12b2 9D91      		ld r25,X+
 2697 12b4 0D90      		ld __tmp_reg__,X+
 2698 12b6 BC91      		ld r27,X
 2699 12b8 A02D      		mov r26,__tmp_reg__
 2700 12ba 8027      		eor r24,r16
 2701 12bc 9127      		eor r25,r17
 2702 12be A227      		eor r26,r18
 2703 12c0 B327      		eor r27,r19
 2704 12c2 C80E      		add r12,r24
 2705 12c4 D91E      		adc r13,r25
 2706 12c6 EA1E      		adc r14,r26
 2707 12c8 FB1E      		adc r15,r27
 2708 12ca D701      		movw r26,r14
 2709 12cc C601      		movw r24,r12
 2710 12ce 072E      		mov r0,r23
 2711 12d0 77E1      		ldi r23,23
 2712               		1:
 2713 12d2 B695      		lsr r27
 2714 12d4 A795      		ror r26
 2715 12d6 9795      		ror r25
 2716 12d8 8795      		ror r24
 2717 12da 7A95      		dec r23
 2718 12dc 01F4      		brne 1b
 2719 12de 702D      		mov r23,r0
 2720 12e0 0B2E      		mov r0,r27
 2721 12e2 B9E0      		ldi r27,9
 2722               		1:
 2723 12e4 CC0C      		lsl r12
 2724 12e6 DD1C      		rol r13
 2725 12e8 EE1C      		rol r14
 2726 12ea FF1C      		rol r15
 2727 12ec BA95      		dec r27
 2728 12ee 01F4      		brne 1b
 2729 12f0 B02D      		mov r27,r0
 2730 12f2 C82A      		or r12,r24
 2731 12f4 D92A      		or r13,r25
 2732 12f6 EA2A      		or r14,r26
 2733 12f8 FB2A      		or r15,r27
 2734               	.LVL70:
 105:../crypto/avrcryptolib//lea/lea_enc.c **** 	X3 = ROR((X2 ^ key->rk[104]) + (X3 ^ key->rk[105]), 5);
 2735               		.loc 1 105 0
 2736 12fa DF01      		movw r26,r30
 2737 12fc A855      		subi r26,88
 2738 12fe BE4F      		sbci r27,-2
 2739 1300 8D90      		ld r8,X+
 2740 1302 9D90      		ld r9,X+
 2741 1304 AD90      		ld r10,X+
 2742 1306 BC90      		ld r11,X
 2743 1308 1397      		sbiw r26,3
 2744 130a 8424      		eor r8,r4
 2745 130c 9524      		eor r9,r5
 2746 130e A624      		eor r10,r6
 2747 1310 B724      		eor r11,r7
 2748 1312 1496      		adiw r26,4
 2749 1314 8D91      		ld r24,X+
 2750 1316 9D91      		ld r25,X+
 2751 1318 0D90      		ld __tmp_reg__,X+
 2752 131a BC91      		ld r27,X
 2753 131c A02D      		mov r26,__tmp_reg__
 2754 131e 8027      		eor r24,r16
 2755 1320 9127      		eor r25,r17
 2756 1322 A227      		eor r26,r18
 2757 1324 B327      		eor r27,r19
 2758 1326 880E      		add r8,r24
 2759 1328 991E      		adc r9,r25
 2760 132a AA1E      		adc r10,r26
 2761 132c BB1E      		adc r11,r27
 2762 132e D501      		movw r26,r10
 2763 1330 C401      		movw r24,r8
 2764 1332 23E0      		ldi r18,3
 2765               		1:
 2766 1334 B695      		lsr r27
 2767 1336 A795      		ror r26
 2768 1338 9795      		ror r25
 2769 133a 8795      		ror r24
 2770 133c 2A95      		dec r18
 2771 133e 01F4      		brne 1b
 2772 1340 3DE1      		ldi r19,29
 2773               		1:
 2774 1342 880C      		lsl r8
 2775 1344 991C      		rol r9
 2776 1346 AA1C      		rol r10
 2777 1348 BB1C      		rol r11
 2778 134a 3A95      		dec r19
 2779 134c 01F4      		brne 1b
 2780 134e 882A      		or r8,r24
 2781 1350 992A      		or r9,r25
 2782 1352 AA2A      		or r10,r26
 2783 1354 BB2A      		or r11,r27
 2784               	.LVL71:
 106:../crypto/avrcryptolib//lea/lea_enc.c **** 	X2 = ROL((X1 ^ key->rk[102]) + (X2 ^ key->rk[103]), 9);
 2785               		.loc 1 106 0
 2786 1356 DF01      		movw r26,r30
 2787 1358 AC55      		subi r26,92
 2788 135a BE4F      		sbci r27,-2
 2789 135c 0D91      		ld r16,X+
 2790 135e 1D91      		ld r17,X+
 2791 1360 2D91      		ld r18,X+
 2792 1362 3C91      		ld r19,X
 2793 1364 1397      		sbiw r26,3
 2794 1366 0425      		eor r16,r4
 2795 1368 1525      		eor r17,r5
 2796 136a 2625      		eor r18,r6
 2797 136c 3725      		eor r19,r7
 2798 136e 1497      		sbiw r26,4
 2799 1370 8D91      		ld r24,X+
 2800 1372 9D91      		ld r25,X+
 2801 1374 0D90      		ld __tmp_reg__,X+
 2802 1376 BC91      		ld r27,X
 2803 1378 A02D      		mov r26,__tmp_reg__
 2804 137a 8427      		eor r24,r20
 2805 137c 9527      		eor r25,r21
 2806 137e A627      		eor r26,r22
 2807 1380 B727      		eor r27,r23
 2808 1382 080F      		add r16,r24
 2809 1384 191F      		adc r17,r25
 2810 1386 2A1F      		adc r18,r26
 2811 1388 3B1F      		adc r19,r27
 2812 138a D901      		movw r26,r18
 2813 138c C801      		movw r24,r16
 2814 138e 6894      		set
 2815 1390 14F8      		bld __zero_reg__,5-1
 2816               		1:
 2817 1392 B695      		lsr r27
 2818 1394 A795      		ror r26
 2819 1396 9795      		ror r25
 2820 1398 8795      		ror r24
 2821 139a 1694      		lsr __zero_reg__
 2822 139c 01F4      		brne 1b
 2823 139e 0F2E      		mov r0,r31
 2824 13a0 FBE1      		ldi r31,27
 2825               		1:
 2826 13a2 000F      		lsl r16
 2827 13a4 111F      		rol r17
 2828 13a6 221F      		rol r18
 2829 13a8 331F      		rol r19
 2830 13aa FA95      		dec r31
 2831 13ac 01F4      		brne 1b
 2832 13ae F02D      		mov r31,r0
 2833 13b0 082B      		or r16,r24
 2834 13b2 192B      		or r17,r25
 2835 13b4 2A2B      		or r18,r26
 2836 13b6 3B2B      		or r19,r27
 2837               	.LVL72:
 107:../crypto/avrcryptolib//lea/lea_enc.c **** 	X1 = ROR((X0 ^ key->rk[112]) + (X1 ^ key->rk[113]), 3);
 2838               		.loc 1 107 0
 2839 13b8 DF01      		movw r26,r30
 2840 13ba A456      		subi r26,100
 2841 13bc BE4F      		sbci r27,-2
 2842 13be 4D90      		ld r4,X+
 2843 13c0 5D90      		ld r5,X+
 2844 13c2 6D90      		ld r6,X+
 2845 13c4 7C90      		ld r7,X
 2846 13c6 1397      		sbiw r26,3
 2847 13c8 4426      		eor r4,r20
 2848 13ca 5526      		eor r5,r21
 2849 13cc 6626      		eor r6,r22
 2850 13ce 7726      		eor r7,r23
 2851 13d0 1497      		sbiw r26,4
 2852 13d2 8D91      		ld r24,X+
 2853 13d4 9D91      		ld r25,X+
 2854 13d6 0D90      		ld __tmp_reg__,X+
 2855 13d8 BC91      		ld r27,X
 2856 13da A02D      		mov r26,__tmp_reg__
 2857 13dc 8C25      		eor r24,r12
 2858 13de 9D25      		eor r25,r13
 2859 13e0 AE25      		eor r26,r14
 2860 13e2 BF25      		eor r27,r15
 2861 13e4 480E      		add r4,r24
 2862 13e6 591E      		adc r5,r25
 2863 13e8 6A1E      		adc r6,r26
 2864 13ea 7B1E      		adc r7,r27
 2865 13ec D301      		movw r26,r6
 2866 13ee C201      		movw r24,r4
 2867 13f0 47E1      		ldi r20,23
 2868               		1:
 2869 13f2 B695      		lsr r27
 2870 13f4 A795      		ror r26
 2871 13f6 9795      		ror r25
 2872 13f8 8795      		ror r24
 2873 13fa 4A95      		dec r20
 2874 13fc 01F4      		brne 1b
 2875               	.LVL73:
 2876 13fe 59E0      		ldi r21,9
 2877               		1:
 2878 1400 440C      		lsl r4
 2879 1402 551C      		rol r5
 2880 1404 661C      		rol r6
 2881 1406 771C      		rol r7
 2882 1408 5A95      		dec r21
 2883 140a 01F4      		brne 1b
 2884 140c 482A      		or r4,r24
 2885 140e 592A      		or r5,r25
 2886 1410 6A2A      		or r6,r26
 2887 1412 7B2A      		or r7,r27
 2888               	.LVL74:
 108:../crypto/avrcryptolib//lea/lea_enc.c **** 	X0 = ROR((X3 ^ key->rk[110]) + (X0 ^ key->rk[111]), 5);
 2889               		.loc 1 108 0
 2890 1414 DF01      		movw r26,r30
 2891 1416 A054      		subi r26,64
 2892 1418 BE4F      		sbci r27,-2
 2893 141a 4D91      		ld r20,X+
 2894 141c 5D91      		ld r21,X+
 2895 141e 6D91      		ld r22,X+
 2896 1420 7C91      		ld r23,X
 2897 1422 1397      		sbiw r26,3
 2898 1424 4825      		eor r20,r8
 2899 1426 5925      		eor r21,r9
 2900 1428 6A25      		eor r22,r10
 2901 142a 7B25      		eor r23,r11
 2902 142c 1496      		adiw r26,4
 2903 142e 8D91      		ld r24,X+
 2904 1430 9D91      		ld r25,X+
 2905 1432 0D90      		ld __tmp_reg__,X+
 2906 1434 BC91      		ld r27,X
 2907 1436 A02D      		mov r26,__tmp_reg__
 2908 1438 8C25      		eor r24,r12
 2909 143a 9D25      		eor r25,r13
 2910 143c AE25      		eor r26,r14
 2911 143e BF25      		eor r27,r15
 2912 1440 480F      		add r20,r24
 2913 1442 591F      		adc r21,r25
 2914 1444 6A1F      		adc r22,r26
 2915 1446 7B1F      		adc r23,r27
 2916 1448 DB01      		movw r26,r22
 2917 144a CA01      		movw r24,r20
 2918 144c 6894      		set
 2919 144e 12F8      		bld __zero_reg__,3-1
 2920               		1:
 2921 1450 B695      		lsr r27
 2922 1452 A795      		ror r26
 2923 1454 9795      		ror r25
 2924 1456 8795      		ror r24
 2925 1458 1694      		lsr __zero_reg__
 2926 145a 01F4      		brne 1b
 2927 145c 032E      		mov r0,r19
 2928 145e 3DE1      		ldi r19,29
 2929               		1:
 2930 1460 440F      		lsl r20
 2931 1462 551F      		rol r21
 2932 1464 661F      		rol r22
 2933 1466 771F      		rol r23
 2934 1468 3A95      		dec r19
 2935 146a 01F4      		brne 1b
 2936 146c 302D      		mov r19,r0
 2937 146e 482B      		or r20,r24
 2938 1470 592B      		or r21,r25
 2939 1472 6A2B      		or r22,r26
 2940 1474 7B2B      		or r23,r27
 2941               	.LVL75:
 109:../crypto/avrcryptolib//lea/lea_enc.c **** 	X3 = ROL((X2 ^ key->rk[108]) + (X3 ^ key->rk[109]), 9);
 2942               		.loc 1 109 0
 2943 1476 DF01      		movw r26,r30
 2944 1478 A454      		subi r26,68
 2945 147a BE4F      		sbci r27,-2
 2946 147c CD90      		ld r12,X+
 2947 147e DD90      		ld r13,X+
 2948 1480 ED90      		ld r14,X+
 2949 1482 FC90      		ld r15,X
 2950 1484 1397      		sbiw r26,3
 2951 1486 C824      		eor r12,r8
 2952 1488 D924      		eor r13,r9
 2953 148a EA24      		eor r14,r10
 2954 148c FB24      		eor r15,r11
 2955 148e 1497      		sbiw r26,4
 2956 1490 8D91      		ld r24,X+
 2957 1492 9D91      		ld r25,X+
 2958 1494 0D90      		ld __tmp_reg__,X+
 2959 1496 BC91      		ld r27,X
 2960 1498 A02D      		mov r26,__tmp_reg__
 2961 149a 8027      		eor r24,r16
 2962 149c 9127      		eor r25,r17
 2963 149e A227      		eor r26,r18
 2964 14a0 B327      		eor r27,r19
 2965 14a2 C80E      		add r12,r24
 2966 14a4 D91E      		adc r13,r25
 2967 14a6 EA1E      		adc r14,r26
 2968 14a8 FB1E      		adc r15,r27
 2969 14aa D701      		movw r26,r14
 2970 14ac C601      		movw r24,r12
 2971 14ae 6894      		set
 2972 14b0 14F8      		bld __zero_reg__,5-1
 2973               		1:
 2974 14b2 B695      		lsr r27
 2975 14b4 A795      		ror r26
 2976 14b6 9795      		ror r25
 2977 14b8 8795      		ror r24
 2978 14ba 1694      		lsr __zero_reg__
 2979 14bc 01F4      		brne 1b
 2980 14be 0B2E      		mov r0,r27
 2981 14c0 BBE1      		ldi r27,27
 2982               		1:
 2983 14c2 CC0C      		lsl r12
 2984 14c4 DD1C      		rol r13
 2985 14c6 EE1C      		rol r14
 2986 14c8 FF1C      		rol r15
 2987 14ca BA95      		dec r27
 2988 14cc 01F4      		brne 1b
 2989 14ce B02D      		mov r27,r0
 2990 14d0 C82A      		or r12,r24
 2991 14d2 D92A      		or r13,r25
 2992 14d4 EA2A      		or r14,r26
 2993 14d6 FB2A      		or r15,r27
 2994               	.LVL76:
 110:../crypto/avrcryptolib//lea/lea_enc.c **** 	X2 = ROR((X1 ^ key->rk[118]) + (X2 ^ key->rk[119]), 3);
 2995               		.loc 1 110 0
 2996 14d8 DF01      		movw r26,r30
 2997 14da AC54      		subi r26,76
 2998 14dc BE4F      		sbci r27,-2
 2999 14de 8D90      		ld r8,X+
 3000 14e0 9D90      		ld r9,X+
 3001 14e2 AD90      		ld r10,X+
 3002 14e4 BC90      		ld r11,X
 3003 14e6 1397      		sbiw r26,3
 3004 14e8 8026      		eor r8,r16
 3005 14ea 9126      		eor r9,r17
 3006 14ec A226      		eor r10,r18
 3007 14ee B326      		eor r11,r19
 3008 14f0 1497      		sbiw r26,4
 3009 14f2 8D91      		ld r24,X+
 3010 14f4 9D91      		ld r25,X+
 3011 14f6 0D90      		ld __tmp_reg__,X+
 3012 14f8 BC91      		ld r27,X
 3013 14fa A02D      		mov r26,__tmp_reg__
 3014 14fc 8425      		eor r24,r4
 3015 14fe 9525      		eor r25,r5
 3016 1500 A625      		eor r26,r6
 3017 1502 B725      		eor r27,r7
 3018 1504 880E      		add r8,r24
 3019 1506 991E      		adc r9,r25
 3020 1508 AA1E      		adc r10,r26
 3021 150a BB1E      		adc r11,r27
 3022 150c D501      		movw r26,r10
 3023 150e C401      		movw r24,r8
 3024 1510 27E1      		ldi r18,23
 3025               		1:
 3026 1512 B695      		lsr r27
 3027 1514 A795      		ror r26
 3028 1516 9795      		ror r25
 3029 1518 8795      		ror r24
 3030 151a 2A95      		dec r18
 3031 151c 01F4      		brne 1b
 3032 151e 39E0      		ldi r19,9
 3033               		1:
 3034 1520 880C      		lsl r8
 3035 1522 991C      		rol r9
 3036 1524 AA1C      		rol r10
 3037 1526 BB1C      		rol r11
 3038 1528 3A95      		dec r19
 3039 152a 01F4      		brne 1b
 3040 152c 882A      		or r8,r24
 3041 152e 992A      		or r9,r25
 3042 1530 AA2A      		or r10,r26
 3043 1532 BB2A      		or r11,r27
 3044               	.LVL77:
 111:../crypto/avrcryptolib//lea/lea_enc.c **** 	X1 = ROR((X0 ^ key->rk[116]) + (X1 ^ key->rk[117]), 5);
 3045               		.loc 1 111 0
 3046 1534 DF01      		movw r26,r30
 3047 1536 A852      		subi r26,40
 3048 1538 BE4F      		sbci r27,-2
 3049 153a 0D91      		ld r16,X+
 3050 153c 1D91      		ld r17,X+
 3051 153e 2D91      		ld r18,X+
 3052 1540 3C91      		ld r19,X
 3053 1542 1397      		sbiw r26,3
 3054 1544 0427      		eor r16,r20
 3055 1546 1527      		eor r17,r21
 3056 1548 2627      		eor r18,r22
 3057 154a 3727      		eor r19,r23
 3058 154c 1496      		adiw r26,4
 3059 154e 8D91      		ld r24,X+
 3060 1550 9D91      		ld r25,X+
 3061 1552 0D90      		ld __tmp_reg__,X+
 3062 1554 BC91      		ld r27,X
 3063 1556 A02D      		mov r26,__tmp_reg__
 3064 1558 8425      		eor r24,r4
 3065 155a 9525      		eor r25,r5
 3066 155c A625      		eor r26,r6
 3067 155e B725      		eor r27,r7
 3068 1560 080F      		add r16,r24
 3069 1562 191F      		adc r17,r25
 3070 1564 2A1F      		adc r18,r26
 3071 1566 3B1F      		adc r19,r27
 3072 1568 D901      		movw r26,r18
 3073 156a C801      		movw r24,r16
 3074 156c 6894      		set
 3075 156e 12F8      		bld __zero_reg__,3-1
 3076               		1:
 3077 1570 B695      		lsr r27
 3078 1572 A795      		ror r26
 3079 1574 9795      		ror r25
 3080 1576 8795      		ror r24
 3081 1578 1694      		lsr __zero_reg__
 3082 157a 01F4      		brne 1b
 3083 157c 0F2E      		mov r0,r31
 3084 157e FDE1      		ldi r31,29
 3085               		1:
 3086 1580 000F      		lsl r16
 3087 1582 111F      		rol r17
 3088 1584 221F      		rol r18
 3089 1586 331F      		rol r19
 3090 1588 FA95      		dec r31
 3091 158a 01F4      		brne 1b
 3092 158c F02D      		mov r31,r0
 3093 158e 082B      		or r16,r24
 3094 1590 192B      		or r17,r25
 3095 1592 2A2B      		or r18,r26
 3096 1594 3B2B      		or r19,r27
 3097               	.LVL78:
 112:../crypto/avrcryptolib//lea/lea_enc.c **** 	X0 = ROL((X3 ^ key->rk[114]) + (X0 ^ key->rk[115]), 9);
 3098               		.loc 1 112 0
 3099 1596 DF01      		movw r26,r30
 3100 1598 AC52      		subi r26,44
 3101 159a BE4F      		sbci r27,-2
 3102 159c 4D90      		ld r4,X+
 3103 159e 5D90      		ld r5,X+
 3104 15a0 6D90      		ld r6,X+
 3105 15a2 7C90      		ld r7,X
 3106 15a4 1397      		sbiw r26,3
 3107 15a6 4426      		eor r4,r20
 3108 15a8 5526      		eor r5,r21
 3109 15aa 6626      		eor r6,r22
 3110 15ac 7726      		eor r7,r23
 3111 15ae 1497      		sbiw r26,4
 3112 15b0 8D91      		ld r24,X+
 3113 15b2 9D91      		ld r25,X+
 3114 15b4 0D90      		ld __tmp_reg__,X+
 3115 15b6 BC91      		ld r27,X
 3116 15b8 A02D      		mov r26,__tmp_reg__
 3117 15ba 8C25      		eor r24,r12
 3118 15bc 9D25      		eor r25,r13
 3119 15be AE25      		eor r26,r14
 3120 15c0 BF25      		eor r27,r15
 3121 15c2 480E      		add r4,r24
 3122 15c4 591E      		adc r5,r25
 3123 15c6 6A1E      		adc r6,r26
 3124 15c8 7B1E      		adc r7,r27
 3125 15ca D301      		movw r26,r6
 3126 15cc C201      		movw r24,r4
 3127 15ce 45E0      		ldi r20,5
 3128               		1:
 3129 15d0 B695      		lsr r27
 3130 15d2 A795      		ror r26
 3131 15d4 9795      		ror r25
 3132 15d6 8795      		ror r24
 3133 15d8 4A95      		dec r20
 3134 15da 01F4      		brne 1b
 3135               	.LVL79:
 3136 15dc 5BE1      		ldi r21,27
 3137               		1:
 3138 15de 440C      		lsl r4
 3139 15e0 551C      		rol r5
 3140 15e2 661C      		rol r6
 3141 15e4 771C      		rol r7
 3142 15e6 5A95      		dec r21
 3143 15e8 01F4      		brne 1b
 3144 15ea 482A      		or r4,r24
 3145 15ec 592A      		or r5,r25
 3146 15ee 6A2A      		or r6,r26
 3147 15f0 7B2A      		or r7,r27
 3148               	.LVL80:
 113:../crypto/avrcryptolib//lea/lea_enc.c **** 
 3149               		.loc 1 113 0
 3150 15f2 DF01      		movw r26,r30
 3151 15f4 A453      		subi r26,52
 3152 15f6 BE4F      		sbci r27,-2
 3153 15f8 4D91      		ld r20,X+
 3154 15fa 5D91      		ld r21,X+
 3155 15fc 6D91      		ld r22,X+
 3156 15fe 7C91      		ld r23,X
 3157 1600 1397      		sbiw r26,3
 3158 1602 4C25      		eor r20,r12
 3159 1604 5D25      		eor r21,r13
 3160 1606 6E25      		eor r22,r14
 3161 1608 7F25      		eor r23,r15
 3162 160a 1497      		sbiw r26,4
 3163 160c 8D91      		ld r24,X+
 3164 160e 9D91      		ld r25,X+
 3165 1610 0D90      		ld __tmp_reg__,X+
 3166 1612 BC91      		ld r27,X
 3167 1614 A02D      		mov r26,__tmp_reg__
 3168 1616 8825      		eor r24,r8
 3169 1618 9925      		eor r25,r9
 3170 161a AA25      		eor r26,r10
 3171 161c BB25      		eor r27,r11
 3172 161e 480F      		add r20,r24
 3173 1620 591F      		adc r21,r25
 3174 1622 6A1F      		adc r22,r26
 3175 1624 7B1F      		adc r23,r27
 3176 1626 DB01      		movw r26,r22
 3177 1628 CA01      		movw r24,r20
 3178 162a 072E      		mov r0,r23
 3179 162c 77E1      		ldi r23,23
 3180               		1:
 3181 162e B695      		lsr r27
 3182 1630 A795      		ror r26
 3183 1632 9795      		ror r25
 3184 1634 8795      		ror r24
 3185 1636 7A95      		dec r23
 3186 1638 01F4      		brne 1b
 3187 163a 702D      		mov r23,r0
 3188 163c 032E      		mov r0,r19
 3189 163e 39E0      		ldi r19,9
 3190               		1:
 3191 1640 440F      		lsl r20
 3192 1642 551F      		rol r21
 3193 1644 661F      		rol r22
 3194 1646 771F      		rol r23
 3195 1648 3A95      		dec r19
 3196 164a 01F4      		brne 1b
 3197 164c 302D      		mov r19,r0
 3198 164e 482B      		or r20,r24
 3199 1650 592B      		or r21,r25
 3200 1652 6A2B      		or r22,r26
 3201 1654 7B2B      		or r23,r27
 3202               	.LVL81:
 115:../crypto/avrcryptolib//lea/lea_enc.c **** 	X2 = ROR((X1 ^ key->rk[122]) + (X2 ^ key->rk[123]), 5);
 3203               		.loc 1 115 0
 3204 1656 DF01      		movw r26,r30
 3205 1658 A051      		subi r26,16
 3206 165a BE4F      		sbci r27,-2
 3207 165c CD90      		ld r12,X+
 3208 165e DD90      		ld r13,X+
 3209 1660 ED90      		ld r14,X+
 3210 1662 FC90      		ld r15,X
 3211 1664 1397      		sbiw r26,3
 3212 1666 C026      		eor r12,r16
 3213 1668 D126      		eor r13,r17
 3214 166a E226      		eor r14,r18
 3215 166c F326      		eor r15,r19
 3216 166e 1496      		adiw r26,4
 3217 1670 8D91      		ld r24,X+
 3218 1672 9D91      		ld r25,X+
 3219 1674 0D90      		ld __tmp_reg__,X+
 3220 1676 BC91      		ld r27,X
 3221 1678 A02D      		mov r26,__tmp_reg__
 3222 167a 8825      		eor r24,r8
 3223 167c 9925      		eor r25,r9
 3224 167e AA25      		eor r26,r10
 3225 1680 BB25      		eor r27,r11
 3226 1682 C80E      		add r12,r24
 3227 1684 D91E      		adc r13,r25
 3228 1686 EA1E      		adc r14,r26
 3229 1688 FB1E      		adc r15,r27
 3230 168a D701      		movw r26,r14
 3231 168c C601      		movw r24,r12
 3232 168e 6894      		set
 3233 1690 12F8      		bld __zero_reg__,3-1
 3234               		1:
 3235 1692 B695      		lsr r27
 3236 1694 A795      		ror r26
 3237 1696 9795      		ror r25
 3238 1698 8795      		ror r24
 3239 169a 1694      		lsr __zero_reg__
 3240 169c 01F4      		brne 1b
 3241 169e 0B2E      		mov r0,r27
 3242 16a0 BDE1      		ldi r27,29
 3243               		1:
 3244 16a2 CC0C      		lsl r12
 3245 16a4 DD1C      		rol r13
 3246 16a6 EE1C      		rol r14
 3247 16a8 FF1C      		rol r15
 3248 16aa BA95      		dec r27
 3249 16ac 01F4      		brne 1b
 3250 16ae B02D      		mov r27,r0
 3251 16b0 C82A      		or r12,r24
 3252 16b2 D92A      		or r13,r25
 3253 16b4 EA2A      		or r14,r26
 3254 16b6 FB2A      		or r15,r27
 3255               	.LVL82:
 116:../crypto/avrcryptolib//lea/lea_enc.c **** 	X1 = ROL((X0 ^ key->rk[120]) + (X1 ^ key->rk[121]), 9);
 3256               		.loc 1 116 0
 3257 16b8 DF01      		movw r26,r30
 3258 16ba A451      		subi r26,20
 3259 16bc BE4F      		sbci r27,-2
 3260 16be 8D90      		ld r8,X+
 3261 16c0 9D90      		ld r9,X+
 3262 16c2 AD90      		ld r10,X+
 3263 16c4 BC90      		ld r11,X
 3264 16c6 1397      		sbiw r26,3
 3265 16c8 8026      		eor r8,r16
 3266 16ca 9126      		eor r9,r17
 3267 16cc A226      		eor r10,r18
 3268 16ce B326      		eor r11,r19
 3269 16d0 1497      		sbiw r26,4
 3270 16d2 8D91      		ld r24,X+
 3271 16d4 9D91      		ld r25,X+
 3272 16d6 0D90      		ld __tmp_reg__,X+
 3273 16d8 BC91      		ld r27,X
 3274 16da A02D      		mov r26,__tmp_reg__
 3275 16dc 8425      		eor r24,r4
 3276 16de 9525      		eor r25,r5
 3277 16e0 A625      		eor r26,r6
 3278 16e2 B725      		eor r27,r7
 3279 16e4 880E      		add r8,r24
 3280 16e6 991E      		adc r9,r25
 3281 16e8 AA1E      		adc r10,r26
 3282 16ea BB1E      		adc r11,r27
 3283 16ec D501      		movw r26,r10
 3284 16ee C401      		movw r24,r8
 3285 16f0 25E0      		ldi r18,5
 3286               		1:
 3287 16f2 B695      		lsr r27
 3288 16f4 A795      		ror r26
 3289 16f6 9795      		ror r25
 3290 16f8 8795      		ror r24
 3291 16fa 2A95      		dec r18
 3292 16fc 01F4      		brne 1b
 3293 16fe 3BE1      		ldi r19,27
 3294               		1:
 3295 1700 880C      		lsl r8
 3296 1702 991C      		rol r9
 3297 1704 AA1C      		rol r10
 3298 1706 BB1C      		rol r11
 3299 1708 3A95      		dec r19
 3300 170a 01F4      		brne 1b
 3301 170c 882A      		or r8,r24
 3302 170e 992A      		or r9,r25
 3303 1710 AA2A      		or r10,r26
 3304 1712 BB2A      		or r11,r27
 3305               	.LVL83:
 117:../crypto/avrcryptolib//lea/lea_enc.c **** 	X0 = ROR((X3 ^ key->rk[130]) + (X0 ^ key->rk[131]), 3);
 3306               		.loc 1 117 0
 3307 1714 DF01      		movw r26,r30
 3308 1716 AC51      		subi r26,28
 3309 1718 BE4F      		sbci r27,-2
 3310 171a 0D91      		ld r16,X+
 3311 171c 1D91      		ld r17,X+
 3312 171e 2D91      		ld r18,X+
 3313 1720 3C91      		ld r19,X
 3314 1722 1397      		sbiw r26,3
 3315 1724 0425      		eor r16,r4
 3316 1726 1525      		eor r17,r5
 3317 1728 2625      		eor r18,r6
 3318 172a 3725      		eor r19,r7
 3319 172c 1497      		sbiw r26,4
 3320 172e 8D91      		ld r24,X+
 3321 1730 9D91      		ld r25,X+
 3322 1732 0D90      		ld __tmp_reg__,X+
 3323 1734 BC91      		ld r27,X
 3324 1736 A02D      		mov r26,__tmp_reg__
 3325 1738 8427      		eor r24,r20
 3326 173a 9527      		eor r25,r21
 3327 173c A627      		eor r26,r22
 3328 173e B727      		eor r27,r23
 3329 1740 080F      		add r16,r24
 3330 1742 191F      		adc r17,r25
 3331 1744 2A1F      		adc r18,r26
 3332 1746 3B1F      		adc r19,r27
 3333 1748 D901      		movw r26,r18
 3334 174a C801      		movw r24,r16
 3335 174c 072E      		mov r0,r23
 3336 174e 77E1      		ldi r23,23
 3337               		1:
 3338 1750 B695      		lsr r27
 3339 1752 A795      		ror r26
 3340 1754 9795      		ror r25
 3341 1756 8795      		ror r24
 3342 1758 7A95      		dec r23
 3343 175a 01F4      		brne 1b
 3344 175c 702D      		mov r23,r0
 3345 175e 0F2E      		mov r0,r31
 3346 1760 F9E0      		ldi r31,9
 3347               		1:
 3348 1762 000F      		lsl r16
 3349 1764 111F      		rol r17
 3350 1766 221F      		rol r18
 3351 1768 331F      		rol r19
 3352 176a FA95      		dec r31
 3353 176c 01F4      		brne 1b
 3354 176e F02D      		mov r31,r0
 3355 1770 082B      		or r16,r24
 3356 1772 192B      		or r17,r25
 3357 1774 2A2B      		or r18,r26
 3358 1776 3B2B      		or r19,r27
 3359               	.LVL84:
 118:../crypto/avrcryptolib//lea/lea_enc.c **** 	X3 = ROR((X2 ^ key->rk[128]) + (X3 ^ key->rk[129]), 5);
 3360               		.loc 1 118 0
 3361 1778 DF01      		movw r26,r30
 3362 177a A85F      		subi r26,-8
 3363 177c BD4F      		sbci r27,-3
 3364 177e 4D90      		ld r4,X+
 3365 1780 5D90      		ld r5,X+
 3366 1782 6D90      		ld r6,X+
 3367 1784 7C90      		ld r7,X
 3368 1786 1397      		sbiw r26,3
 3369 1788 4C24      		eor r4,r12
 3370 178a 5D24      		eor r5,r13
 3371 178c 6E24      		eor r6,r14
 3372 178e 7F24      		eor r7,r15
 3373 1790 1496      		adiw r26,4
 3374 1792 8D91      		ld r24,X+
 3375 1794 9D91      		ld r25,X+
 3376 1796 0D90      		ld __tmp_reg__,X+
 3377 1798 BC91      		ld r27,X
 3378 179a A02D      		mov r26,__tmp_reg__
 3379 179c 8427      		eor r24,r20
 3380 179e 9527      		eor r25,r21
 3381 17a0 A627      		eor r26,r22
 3382 17a2 B727      		eor r27,r23
 3383 17a4 480E      		add r4,r24
 3384 17a6 591E      		adc r5,r25
 3385 17a8 6A1E      		adc r6,r26
 3386 17aa 7B1E      		adc r7,r27
 3387 17ac D301      		movw r26,r6
 3388 17ae C201      		movw r24,r4
 3389 17b0 43E0      		ldi r20,3
 3390               		1:
 3391 17b2 B695      		lsr r27
 3392 17b4 A795      		ror r26
 3393 17b6 9795      		ror r25
 3394 17b8 8795      		ror r24
 3395 17ba 4A95      		dec r20
 3396 17bc 01F4      		brne 1b
 3397               	.LVL85:
 3398 17be 5DE1      		ldi r21,29
 3399               		1:
 3400 17c0 440C      		lsl r4
 3401 17c2 551C      		rol r5
 3402 17c4 661C      		rol r6
 3403 17c6 771C      		rol r7
 3404 17c8 5A95      		dec r21
 3405 17ca 01F4      		brne 1b
 3406 17cc 482A      		or r4,r24
 3407 17ce 592A      		or r5,r25
 3408 17d0 6A2A      		or r6,r26
 3409 17d2 7B2A      		or r7,r27
 3410               	.LVL86:
 119:../crypto/avrcryptolib//lea/lea_enc.c **** 	X2 = ROL((X1 ^ key->rk[126]) + (X2 ^ key->rk[127]), 9);
 3411               		.loc 1 119 0
 3412 17d4 DF01      		movw r26,r30
 3413 17d6 AC5F      		subi r26,-4
 3414 17d8 BD4F      		sbci r27,-3
 3415 17da 4D91      		ld r20,X+
 3416 17dc 5D91      		ld r21,X+
 3417 17de 6D91      		ld r22,X+
 3418 17e0 7C91      		ld r23,X
 3419 17e2 1397      		sbiw r26,3
 3420 17e4 4C25      		eor r20,r12
 3421 17e6 5D25      		eor r21,r13
 3422 17e8 6E25      		eor r22,r14
 3423 17ea 7F25      		eor r23,r15
 3424 17ec 1497      		sbiw r26,4
 3425 17ee 8D91      		ld r24,X+
 3426 17f0 9D91      		ld r25,X+
 3427 17f2 0D90      		ld __tmp_reg__,X+
 3428 17f4 BC91      		ld r27,X
 3429 17f6 A02D      		mov r26,__tmp_reg__
 3430 17f8 8825      		eor r24,r8
 3431 17fa 9925      		eor r25,r9
 3432 17fc AA25      		eor r26,r10
 3433 17fe BB25      		eor r27,r11
 3434 1800 480F      		add r20,r24
 3435 1802 591F      		adc r21,r25
 3436 1804 6A1F      		adc r22,r26
 3437 1806 7B1F      		adc r23,r27
 3438 1808 DB01      		movw r26,r22
 3439 180a CA01      		movw r24,r20
 3440 180c 6894      		set
 3441 180e 14F8      		bld __zero_reg__,5-1
 3442               		1:
 3443 1810 B695      		lsr r27
 3444 1812 A795      		ror r26
 3445 1814 9795      		ror r25
 3446 1816 8795      		ror r24
 3447 1818 1694      		lsr __zero_reg__
 3448 181a 01F4      		brne 1b
 3449 181c 032E      		mov r0,r19
 3450 181e 3BE1      		ldi r19,27
 3451               		1:
 3452 1820 440F      		lsl r20
 3453 1822 551F      		rol r21
 3454 1824 661F      		rol r22
 3455 1826 771F      		rol r23
 3456 1828 3A95      		dec r19
 3457 182a 01F4      		brne 1b
 3458 182c 302D      		mov r19,r0
 3459 182e 482B      		or r20,r24
 3460 1830 592B      		or r21,r25
 3461 1832 6A2B      		or r22,r26
 3462 1834 7B2B      		or r23,r27
 3463               	.LVL87:
 120:../crypto/avrcryptolib//lea/lea_enc.c **** 	X1 = ROR((X0 ^ key->rk[136]) + (X1 ^ key->rk[137]), 3);
 3464               		.loc 1 120 0
 3465 1836 DF01      		movw r26,r30
 3466 1838 A450      		subi r26,4
 3467 183a BE4F      		sbci r27,-2
 3468 183c CD90      		ld r12,X+
 3469 183e DD90      		ld r13,X+
 3470 1840 ED90      		ld r14,X+
 3471 1842 FC90      		ld r15,X
 3472 1844 1397      		sbiw r26,3
 3473 1846 C824      		eor r12,r8
 3474 1848 D924      		eor r13,r9
 3475 184a EA24      		eor r14,r10
 3476 184c FB24      		eor r15,r11
 3477 184e 1497      		sbiw r26,4
 3478 1850 8D91      		ld r24,X+
 3479 1852 9D91      		ld r25,X+
 3480 1854 0D90      		ld __tmp_reg__,X+
 3481 1856 BC91      		ld r27,X
 3482 1858 A02D      		mov r26,__tmp_reg__
 3483 185a 8027      		eor r24,r16
 3484 185c 9127      		eor r25,r17
 3485 185e A227      		eor r26,r18
 3486 1860 B327      		eor r27,r19
 3487 1862 C80E      		add r12,r24
 3488 1864 D91E      		adc r13,r25
 3489 1866 EA1E      		adc r14,r26
 3490 1868 FB1E      		adc r15,r27
 3491 186a D701      		movw r26,r14
 3492 186c C601      		movw r24,r12
 3493 186e 072E      		mov r0,r23
 3494 1870 77E1      		ldi r23,23
 3495               		1:
 3496 1872 B695      		lsr r27
 3497 1874 A795      		ror r26
 3498 1876 9795      		ror r25
 3499 1878 8795      		ror r24
 3500 187a 7A95      		dec r23
 3501 187c 01F4      		brne 1b
 3502 187e 702D      		mov r23,r0
 3503 1880 0B2E      		mov r0,r27
 3504 1882 B9E0      		ldi r27,9
 3505               		1:
 3506 1884 CC0C      		lsl r12
 3507 1886 DD1C      		rol r13
 3508 1888 EE1C      		rol r14
 3509 188a FF1C      		rol r15
 3510 188c BA95      		dec r27
 3511 188e 01F4      		brne 1b
 3512 1890 B02D      		mov r27,r0
 3513 1892 C82A      		or r12,r24
 3514 1894 D92A      		or r13,r25
 3515 1896 EA2A      		or r14,r26
 3516 1898 FB2A      		or r15,r27
 3517               	.LVL88:
 121:../crypto/avrcryptolib//lea/lea_enc.c **** 	X0 = ROR((X3 ^ key->rk[134]) + (X0 ^ key->rk[135]), 5);
 3518               		.loc 1 121 0
 3519 189a DF01      		movw r26,r30
 3520 189c A05E      		subi r26,-32
 3521 189e BD4F      		sbci r27,-3
 3522 18a0 8D91      		ld r24,X+
 3523 18a2 9D91      		ld r25,X+
 3524 18a4 0D90      		ld __tmp_reg__,X+
 3525 18a6 BC91      		ld r27,X
 3526 18a8 A02D      		mov r26,__tmp_reg__
 3527 18aa 8425      		eor r24,r4
 3528 18ac 9525      		eor r25,r5
 3529 18ae A625      		eor r26,r6
 3530 18b0 B725      		eor r27,r7
 3531 18b2 C052      		subi r28,32
 3532 18b4 DE4F      		sbci r29,-2
 3533 18b6 8880      		ld r8,Y
 3534 18b8 9980      		ldd r9,Y+1
 3535 18ba AA80      		ldd r10,Y+2
 3536 18bc BB80      		ldd r11,Y+3
 3537 18be 8026      		eor r8,r16
 3538 18c0 9126      		eor r9,r17
 3539 18c2 A226      		eor r10,r18
 3540 18c4 B326      		eor r11,r19
 3541 18c6 880D      		add r24,r8
 3542 18c8 991D      		adc r25,r9
 3543 18ca AA1D      		adc r26,r10
 3544 18cc BB1D      		adc r27,r11
 3545 18ce 8C01      		movw r16,r24
 3546 18d0 9D01      		movw r18,r26
 3547               	.LVL89:
 3548 18d2 6894      		set
 3549 18d4 12F8      		bld __zero_reg__,3-1
 3550               		1:
 3551 18d6 3695      		lsr r19
 3552 18d8 2795      		ror r18
 3553 18da 1795      		ror r17
 3554 18dc 0795      		ror r16
 3555 18de 1694      		lsr __zero_reg__
 3556 18e0 01F4      		brne 1b
 3557 18e2 4C01      		movw r8,r24
 3558 18e4 5D01      		movw r10,r26
 3559 18e6 8DE1      		ldi r24,29
 3560               		1:
 3561 18e8 880C      		lsl r8
 3562 18ea 991C      		rol r9
 3563 18ec AA1C      		rol r10
 3564 18ee BB1C      		rol r11
 3565 18f0 8A95      		dec r24
 3566 18f2 01F4      		brne 1b
 3567 18f4 802A      		or r8,r16
 3568 18f6 912A      		or r9,r17
 3569 18f8 A22A      		or r10,r18
 3570 18fa B32A      		or r11,r19
 3571               	.LVL90:
 122:../crypto/avrcryptolib//lea/lea_enc.c **** 	X3 = ROL((X2 ^ key->rk[132]) + (X3 ^ key->rk[133]), 9);
 3572               		.loc 1 122 0
 3573 18fc DF01      		movw r26,r30
 3574 18fe A45E      		subi r26,-28
 3575 1900 BD4F      		sbci r27,-3
 3576 1902 0D91      		ld r16,X+
 3577 1904 1D91      		ld r17,X+
 3578 1906 2D91      		ld r18,X+
 3579 1908 3C91      		ld r19,X
 3580 190a 1397      		sbiw r26,3
 3581 190c 0425      		eor r16,r4
 3582 190e 1525      		eor r17,r5
 3583 1910 2625      		eor r18,r6
 3584 1912 3725      		eor r19,r7
 3585 1914 1497      		sbiw r26,4
 3586 1916 8D91      		ld r24,X+
 3587 1918 9D91      		ld r25,X+
 3588 191a 0D90      		ld __tmp_reg__,X+
 3589 191c BC91      		ld r27,X
 3590 191e A02D      		mov r26,__tmp_reg__
 3591 1920 8427      		eor r24,r20
 3592 1922 9527      		eor r25,r21
 3593 1924 A627      		eor r26,r22
 3594 1926 B727      		eor r27,r23
 3595 1928 080F      		add r16,r24
 3596 192a 191F      		adc r17,r25
 3597 192c 2A1F      		adc r18,r26
 3598 192e 3B1F      		adc r19,r27
 3599 1930 D901      		movw r26,r18
 3600 1932 C801      		movw r24,r16
 3601 1934 6894      		set
 3602 1936 14F8      		bld __zero_reg__,5-1
 3603               		1:
 3604 1938 B695      		lsr r27
 3605 193a A795      		ror r26
 3606 193c 9795      		ror r25
 3607 193e 8795      		ror r24
 3608 1940 1694      		lsr __zero_reg__
 3609 1942 01F4      		brne 1b
 3610 1944 0F2E      		mov r0,r31
 3611 1946 FBE1      		ldi r31,27
 3612               		1:
 3613 1948 000F      		lsl r16
 3614 194a 111F      		rol r17
 3615 194c 221F      		rol r18
 3616 194e 331F      		rol r19
 3617 1950 FA95      		dec r31
 3618 1952 01F4      		brne 1b
 3619 1954 F02D      		mov r31,r0
 3620 1956 082B      		or r16,r24
 3621 1958 192B      		or r17,r25
 3622 195a 2A2B      		or r18,r26
 3623 195c 3B2B      		or r19,r27
 3624               	.LVL91:
 123:../crypto/avrcryptolib//lea/lea_enc.c **** 	X2 = ROR((X1 ^ key->rk[142]) + (X2 ^ key->rk[143]), 3);
 3625               		.loc 1 123 0
 3626 195e DF01      		movw r26,r30
 3627 1960 AC5E      		subi r26,-20
 3628 1962 BD4F      		sbci r27,-3
 3629 1964 4D90      		ld r4,X+
 3630 1966 5D90      		ld r5,X+
 3631 1968 6D90      		ld r6,X+
 3632 196a 7C90      		ld r7,X
 3633 196c 1397      		sbiw r26,3
 3634 196e 4426      		eor r4,r20
 3635 1970 5526      		eor r5,r21
 3636 1972 6626      		eor r6,r22
 3637 1974 7726      		eor r7,r23
 3638 1976 1497      		sbiw r26,4
 3639 1978 8D91      		ld r24,X+
 3640 197a 9D91      		ld r25,X+
 3641 197c 0D90      		ld __tmp_reg__,X+
 3642 197e BC91      		ld r27,X
 3643 1980 A02D      		mov r26,__tmp_reg__
 3644 1982 8C25      		eor r24,r12
 3645 1984 9D25      		eor r25,r13
 3646 1986 AE25      		eor r26,r14
 3647 1988 BF25      		eor r27,r15
 3648 198a 480E      		add r4,r24
 3649 198c 591E      		adc r5,r25
 3650 198e 6A1E      		adc r6,r26
 3651 1990 7B1E      		adc r7,r27
 3652 1992 B301      		movw r22,r6
 3653 1994 A201      		movw r20,r4
 3654               	.LVL92:
 3655 1996 87E1      		ldi r24,23
 3656               		1:
 3657 1998 7695      		lsr r23
 3658 199a 6795      		ror r22
 3659 199c 5795      		ror r21
 3660 199e 4795      		ror r20
 3661 19a0 8A95      		dec r24
 3662 19a2 01F4      		brne 1b
 3663 19a4 D301      		movw r26,r6
 3664 19a6 C201      		movw r24,r4
 3665 19a8 072E      		mov r0,r23
 3666 19aa 79E0      		ldi r23,9
 3667               		1:
 3668 19ac 880F      		lsl r24
 3669 19ae 991F      		rol r25
 3670 19b0 AA1F      		rol r26
 3671 19b2 BB1F      		rol r27
 3672 19b4 7A95      		dec r23
 3673 19b6 01F4      		brne 1b
 3674 19b8 702D      		mov r23,r0
 3675 19ba 842B      		or r24,r20
 3676 19bc 952B      		or r25,r21
 3677 19be A62B      		or r26,r22
 3678 19c0 B72B      		or r27,r23
 3679               	.LVL93:
 124:../crypto/avrcryptolib//lea/lea_enc.c **** 	X1 = ROR((X0 ^ key->rk[140]) + (X1 ^ key->rk[141]), 5);
 3680               		.loc 1 124 0
 3681 19c2 6496      		adiw r28,20
 3682 19c4 4881      		ld r20,Y
 3683 19c6 5981      		ldd r21,Y+1
 3684 19c8 6A81      		ldd r22,Y+2
 3685 19ca 7B81      		ldd r23,Y+3
 3686 19cc 4825      		eor r20,r8
 3687 19ce 5925      		eor r21,r9
 3688 19d0 6A25      		eor r22,r10
 3689 19d2 7B25      		eor r23,r11
 3690 19d4 2496      		adiw r28,4
 3691 19d6 4880      		ld r4,Y
 3692 19d8 5980      		ldd r5,Y+1
 3693 19da 6A80      		ldd r6,Y+2
 3694 19dc 7B80      		ldd r7,Y+3
 3695 19de 4C24      		eor r4,r12
 3696 19e0 5D24      		eor r5,r13
 3697 19e2 6E24      		eor r6,r14
 3698 19e4 7F24      		eor r7,r15
 3699 19e6 440D      		add r20,r4
 3700 19e8 551D      		adc r21,r5
 3701 19ea 661D      		adc r22,r6
 3702 19ec 771D      		adc r23,r7
 3703 19ee 6A01      		movw r12,r20
 3704 19f0 7B01      		movw r14,r22
 3705               	.LVL94:
 3706 19f2 6894      		set
 3707 19f4 12F8      		bld __zero_reg__,3-1
 3708               		1:
 3709 19f6 F694      		lsr r15
 3710 19f8 E794      		ror r14
 3711 19fa D794      		ror r13
 3712 19fc C794      		ror r12
 3713 19fe 1694      		lsr __zero_reg__
 3714 1a00 01F4      		brne 1b
 3715 1a02 032E      		mov r0,r19
 3716 1a04 3DE1      		ldi r19,29
 3717               		1:
 3718 1a06 440F      		lsl r20
 3719 1a08 551F      		rol r21
 3720 1a0a 661F      		rol r22
 3721 1a0c 771F      		rol r23
 3722 1a0e 3A95      		dec r19
 3723 1a10 01F4      		brne 1b
 3724 1a12 302D      		mov r19,r0
 3725 1a14 4C29      		or r20,r12
 3726 1a16 5D29      		or r21,r13
 3727 1a18 6E29      		or r22,r14
 3728 1a1a 7F29      		or r23,r15
 3729               	.LVL95:
 125:../crypto/avrcryptolib//lea/lea_enc.c **** 	X0 = ROL((X3 ^ key->rk[138]) + (X0 ^ key->rk[139]), 9);
 3730               		.loc 1 125 0
 3731 1a1c 2897      		sbiw r28,8
 3732 1a1e C880      		ld r12,Y
 3733 1a20 D980      		ldd r13,Y+1
 3734 1a22 EA80      		ldd r14,Y+2
 3735 1a24 FB80      		ldd r15,Y+3
 3736 1a26 C824      		eor r12,r8
 3737 1a28 D924      		eor r13,r9
 3738 1a2a EA24      		eor r14,r10
 3739 1a2c FB24      		eor r15,r11
 3740 1a2e 2497      		sbiw r28,4
 3741 1a30 8880      		ld r8,Y
 3742 1a32 9980      		ldd r9,Y+1
 3743 1a34 AA80      		ldd r10,Y+2
 3744 1a36 BB80      		ldd r11,Y+3
 3745               	.LVL96:
 3746 1a38 8026      		eor r8,r16
 3747 1a3a 9126      		eor r9,r17
 3748 1a3c A226      		eor r10,r18
 3749 1a3e B326      		eor r11,r19
 3750 1a40 C80C      		add r12,r8
 3751 1a42 D91C      		adc r13,r9
 3752 1a44 EA1C      		adc r14,r10
 3753 1a46 FB1C      		adc r15,r11
 3754 1a48 4601      		movw r8,r12
 3755 1a4a 5701      		movw r10,r14
 3756 1a4c 6894      		set
 3757 1a4e 14F8      		bld __zero_reg__,5-1
 3758               		1:
 3759 1a50 B694      		lsr r11
 3760 1a52 A794      		ror r10
 3761 1a54 9794      		ror r9
 3762 1a56 8794      		ror r8
 3763 1a58 1694      		lsr __zero_reg__
 3764 1a5a 01F4      		brne 1b
 3765 1a5c 0B2E      		mov r0,r27
 3766 1a5e BBE1      		ldi r27,27
 3767               		1:
 3768 1a60 CC0C      		lsl r12
 3769 1a62 DD1C      		rol r13
 3770 1a64 EE1C      		rol r14
 3771 1a66 FF1C      		rol r15
 3772 1a68 BA95      		dec r27
 3773 1a6a 01F4      		brne 1b
 3774 1a6c B02D      		mov r27,r0
 3775 1a6e C828      		or r12,r8
 3776 1a70 D928      		or r13,r9
 3777 1a72 EA28      		or r14,r10
 3778 1a74 FB28      		or r15,r11
 3779               	.LVL97:
 126:../crypto/avrcryptolib//lea/lea_enc.c **** 		
 3780               		.loc 1 126 0
 3781 1a76 2497      		sbiw r28,4
 3782 1a78 8880      		ld r8,Y
 3783 1a7a 9980      		ldd r9,Y+1
 3784 1a7c AA80      		ldd r10,Y+2
 3785 1a7e BB80      		ldd r11,Y+3
 3786 1a80 8026      		eor r8,r16
 3787 1a82 9126      		eor r9,r17
 3788 1a84 A226      		eor r10,r18
 3789 1a86 B326      		eor r11,r19
 3790 1a88 E85D      		subi r30,-40
 3791 1a8a FD4F      		sbci r31,-3
 3792 1a8c 0081      		ld r16,Z
 3793 1a8e 1181      		ldd r17,Z+1
 3794 1a90 2281      		ldd r18,Z+2
 3795 1a92 3381      		ldd r19,Z+3
 3796               	.LVL98:
 3797 1a94 0827      		eor r16,r24
 3798 1a96 1927      		eor r17,r25
 3799 1a98 2A27      		eor r18,r26
 3800 1a9a 3B27      		eor r19,r27
 3801 1a9c 800E      		add r8,r16
 3802 1a9e 911E      		adc r9,r17
 3803 1aa0 A21E      		adc r10,r18
 3804 1aa2 B31E      		adc r11,r19
 3805 1aa4 9501      		movw r18,r10
 3806 1aa6 8401      		movw r16,r8
 3807 1aa8 E7E1      		ldi r30,23
 3808               		1:
 3809 1aaa 3695      		lsr r19
 3810 1aac 2795      		ror r18
 3811 1aae 1795      		ror r17
 3812 1ab0 0795      		ror r16
 3813 1ab2 EA95      		dec r30
 3814 1ab4 01F4      		brne 1b
 3815 1ab6 F9E0      		ldi r31,9
 3816               		1:
 3817 1ab8 880C      		lsl r8
 3818 1aba 991C      		rol r9
 3819 1abc AA1C      		rol r10
 3820 1abe BB1C      		rol r11
 3821 1ac0 FA95      		dec r31
 3822 1ac2 01F4      		brne 1b
 3823 1ac4 802A      		or r8,r16
 3824 1ac6 912A      		or r9,r17
 3825 1ac8 A22A      		or r10,r18
 3826 1aca B32A      		or r11,r19
 3827               	.LVL99:
 3828 1acc F101      		movw r30,r2
 3829 1ace 24E0      		ldi r18,lo8(4)
 3830               	.LVL100:
 3831               	.L3:
 130:../crypto/avrcryptolib//lea/lea_enc.c **** 		state->s[i+4] = X1;
 3832               		.loc 1 130 0
 3833 1ad0 8192      		st Z+,r8
 3834               	.LVL101:
 131:../crypto/avrcryptolib//lea/lea_enc.c **** 		state->s[i+8] = X2;
 3835               		.loc 1 131 0
 3836 1ad2 C382      		std Z+3,r12
 132:../crypto/avrcryptolib//lea/lea_enc.c **** 		state->s[i+12] = X3;
 3837               		.loc 1 132 0
 3838 1ad4 4783      		std Z+7,r20
 133:../crypto/avrcryptolib//lea/lea_enc.c **** 		X0 >>=8;
 3839               		.loc 1 133 0
 3840 1ad6 8387      		std Z+11,r24
 134:../crypto/avrcryptolib//lea/lea_enc.c **** 		X1 >>=8;
 3841               		.loc 1 134 0
 3842 1ad8 892C      		mov r8,r9
 3843 1ada 9A2C      		mov r9,r10
 3844 1adc AB2C      		mov r10,r11
 3845 1ade BB24      		clr r11
 3846               	.LVL102:
 135:../crypto/avrcryptolib//lea/lea_enc.c **** 		X2 >>=8;
 3847               		.loc 1 135 0
 3848 1ae0 CD2C      		mov r12,r13
 3849 1ae2 DE2C      		mov r13,r14
 3850 1ae4 EF2C      		mov r14,r15
 3851 1ae6 FF24      		clr r15
 3852               	.LVL103:
 136:../crypto/avrcryptolib//lea/lea_enc.c **** 		X3 >>=8;
 3853               		.loc 1 136 0
 3854 1ae8 452F      		mov r20,r21
 3855 1aea 562F      		mov r21,r22
 3856 1aec 672F      		mov r22,r23
 3857 1aee 7727      		clr r23
 3858               	.LVL104:
 137:../crypto/avrcryptolib//lea/lea_enc.c **** 	}
 3859               		.loc 1 137 0
 3860 1af0 892F      		mov r24,r25
 3861 1af2 9A2F      		mov r25,r26
 3862 1af4 AB2F      		mov r26,r27
 3863 1af6 BB27      		clr r27
 3864               	.LVL105:
 3865 1af8 2150      		subi r18,lo8(-(-1))
 129:../crypto/avrcryptolib//lea/lea_enc.c **** 		state->s[i] = X0;
 3866               		.loc 1 129 0
 3867 1afa 01F4      		brne .L3
 3868               	/* epilogue start */
 3869               	.LBE5:
 3870               	.LBE4:
 143:../crypto/avrcryptolib//lea/lea_enc.c **** 	
 144:../crypto/avrcryptolib//lea/lea_enc.c **** 	lea_enc_round(state,key);
 145:../crypto/avrcryptolib//lea/lea_enc.c **** 		
 146:../crypto/avrcryptolib//lea/lea_enc.c **** 	/*
 147:../crypto/avrcryptolib//lea/lea_enc.c **** 	for(i=0; i<16; ++i){
 148:../crypto/avrcryptolib//lea/lea_enc.c **** 		state->s[i] ^= ks->key[0].ks[i];
 149:../crypto/avrcryptolib//lea/lea_enc.c **** 	}
 150:../crypto/avrcryptolib//lea/lea_enc.c **** 	i=1;
 151:../crypto/avrcryptolib//lea/lea_enc.c **** 	for(;rounds>1;--rounds){
 152:../crypto/avrcryptolib//lea/lea_enc.c **** 		lea_enc_round(state, &(ks->key[i]));
 153:../crypto/avrcryptolib//lea/lea_enc.c **** 		++i;
 154:../crypto/avrcryptolib//lea/lea_enc.c **** 	}
 155:../crypto/avrcryptolib//lea/lea_enc.c **** 	lea_enc_lastround(state, &(ks->key[i]));
 156:../crypto/avrcryptolib//lea/lea_enc.c **** 	*/
 157:../crypto/avrcryptolib//lea/lea_enc.c **** }
 3871               		.loc 1 157 0
 3872 1afc DF91      		pop r29
 3873 1afe CF91      		pop r28
 3874 1b00 1F91      		pop r17
 3875 1b02 0F91      		pop r16
 3876 1b04 FF90      		pop r15
 3877 1b06 EF90      		pop r14
 3878 1b08 DF90      		pop r13
 3879 1b0a CF90      		pop r12
 3880               	.LVL106:
 3881 1b0c BF90      		pop r11
 3882 1b0e AF90      		pop r10
 3883 1b10 9F90      		pop r9
 3884 1b12 8F90      		pop r8
 3885               	.LVL107:
 3886 1b14 7F90      		pop r7
 3887 1b16 6F90      		pop r6
 3888 1b18 5F90      		pop r5
 3889 1b1a 4F90      		pop r4
 3890 1b1c 3F90      		pop r3
 3891 1b1e 2F90      		pop r2
 3892               	.LVL108:
 3893 1b20 0895      		ret
 3894               		.cfi_endproc
 3895               	.LFE2:
 3897               	.Letext0:
 3898               		.file 2 "/usr/lib/avr/include/stdint.h"
 3899               		.file 3 "../crypto/avrcryptolib//lea/lea_types.h"